ARM GAS  C:\Users\SHAHIL~1\AppData\Local\Temp\ccJVPaxU.s 			page 1


   1              		.cpu cortex-m0
   2              		.fpu softvfp
   3              		.eabi_attribute 20, 1
   4              		.eabi_attribute 21, 1
   5              		.eabi_attribute 23, 3
   6              		.eabi_attribute 24, 1
   7              		.eabi_attribute 25, 1
   8              		.eabi_attribute 26, 1
   9              		.eabi_attribute 30, 6
  10              		.eabi_attribute 34, 0
  11              		.eabi_attribute 18, 4
  12              		.code	16
  13              		.file	"Timer_1.c"
  14              		.text
  15              	.Ltext0:
  16              		.cfi_sections	.debug_frame
  17              		.global	Timer_1_initVar
  18              		.bss
  19              		.type	Timer_1_initVar, %object
  20              		.size	Timer_1_initVar, 1
  21              	Timer_1_initVar:
  22 0000 00       		.space	1
  23              		.section	.text.Timer_1_Init,"ax",%progbits
  24              		.align	2
  25              		.global	Timer_1_Init
  26              		.code	16
  27              		.thumb_func
  28              		.type	Timer_1_Init, %function
  29              	Timer_1_Init:
  30              	.LFB0:
  31              		.file 1 "Generated_Source\\PSoC4\\Timer_1.c"
   1:Generated_Source\PSoC4/Timer_1.c **** /*******************************************************************************
   2:Generated_Source\PSoC4/Timer_1.c **** * File Name: Timer_1.c
   3:Generated_Source\PSoC4/Timer_1.c **** * Version 2.10
   4:Generated_Source\PSoC4/Timer_1.c **** *
   5:Generated_Source\PSoC4/Timer_1.c **** * Description:
   6:Generated_Source\PSoC4/Timer_1.c **** *  This file provides the source code to the API for the Timer_1
   7:Generated_Source\PSoC4/Timer_1.c **** *  component
   8:Generated_Source\PSoC4/Timer_1.c **** *
   9:Generated_Source\PSoC4/Timer_1.c **** * Note:
  10:Generated_Source\PSoC4/Timer_1.c **** *  None
  11:Generated_Source\PSoC4/Timer_1.c **** *
  12:Generated_Source\PSoC4/Timer_1.c **** ********************************************************************************
  13:Generated_Source\PSoC4/Timer_1.c **** * Copyright 2013-2015, Cypress Semiconductor Corporation.  All rights reserved.
  14:Generated_Source\PSoC4/Timer_1.c **** * You may use this file only in accordance with the license, terms, conditions,
  15:Generated_Source\PSoC4/Timer_1.c **** * disclaimers, and limitations in the end user license agreement accompanying
  16:Generated_Source\PSoC4/Timer_1.c **** * the software package with which this file was provided.
  17:Generated_Source\PSoC4/Timer_1.c **** *******************************************************************************/
  18:Generated_Source\PSoC4/Timer_1.c **** 
  19:Generated_Source\PSoC4/Timer_1.c **** #include "Timer_1.h"
  20:Generated_Source\PSoC4/Timer_1.c **** 
  21:Generated_Source\PSoC4/Timer_1.c **** uint8 Timer_1_initVar = 0u;
  22:Generated_Source\PSoC4/Timer_1.c **** 
  23:Generated_Source\PSoC4/Timer_1.c **** 
  24:Generated_Source\PSoC4/Timer_1.c **** /*******************************************************************************
  25:Generated_Source\PSoC4/Timer_1.c **** * Function Name: Timer_1_Init
  26:Generated_Source\PSoC4/Timer_1.c **** ********************************************************************************
ARM GAS  C:\Users\SHAHIL~1\AppData\Local\Temp\ccJVPaxU.s 			page 2


  27:Generated_Source\PSoC4/Timer_1.c **** *
  28:Generated_Source\PSoC4/Timer_1.c **** * Summary:
  29:Generated_Source\PSoC4/Timer_1.c **** *  Initialize/Restore default Timer_1 configuration.
  30:Generated_Source\PSoC4/Timer_1.c **** *
  31:Generated_Source\PSoC4/Timer_1.c **** * Parameters:
  32:Generated_Source\PSoC4/Timer_1.c **** *  None
  33:Generated_Source\PSoC4/Timer_1.c **** *
  34:Generated_Source\PSoC4/Timer_1.c **** * Return:
  35:Generated_Source\PSoC4/Timer_1.c **** *  None
  36:Generated_Source\PSoC4/Timer_1.c **** *
  37:Generated_Source\PSoC4/Timer_1.c **** *******************************************************************************/
  38:Generated_Source\PSoC4/Timer_1.c **** void Timer_1_Init(void)
  39:Generated_Source\PSoC4/Timer_1.c **** {
  32              		.loc 1 39 0
  33              		.cfi_startproc
  34 0000 80B5     		push	{r7, lr}
  35              		.cfi_def_cfa_offset 8
  36              		.cfi_offset 7, -8
  37              		.cfi_offset 14, -4
  38 0002 00AF     		add	r7, sp, #0
  39              		.cfi_def_cfa_register 7
  40:Generated_Source\PSoC4/Timer_1.c **** 
  41:Generated_Source\PSoC4/Timer_1.c ****     /* Set values from customizer to CTRL */
  42:Generated_Source\PSoC4/Timer_1.c ****     #if (Timer_1__QUAD == Timer_1_CONFIG)
  43:Generated_Source\PSoC4/Timer_1.c ****         Timer_1_CONTROL_REG = Timer_1_CTRL_QUAD_BASE_CONFIG;
  44:Generated_Source\PSoC4/Timer_1.c ****         
  45:Generated_Source\PSoC4/Timer_1.c ****         /* Set values from customizer to CTRL1 */
  46:Generated_Source\PSoC4/Timer_1.c ****         Timer_1_TRIG_CONTROL1_REG  = Timer_1_QUAD_SIGNALS_MODES;
  47:Generated_Source\PSoC4/Timer_1.c **** 
  48:Generated_Source\PSoC4/Timer_1.c ****         /* Set values from customizer to INTR */
  49:Generated_Source\PSoC4/Timer_1.c ****         Timer_1_SetInterruptMode(Timer_1_QUAD_INTERRUPT_MASK);
  50:Generated_Source\PSoC4/Timer_1.c ****         
  51:Generated_Source\PSoC4/Timer_1.c ****          /* Set other values */
  52:Generated_Source\PSoC4/Timer_1.c ****         Timer_1_SetCounterMode(Timer_1_COUNT_DOWN);
  53:Generated_Source\PSoC4/Timer_1.c ****         Timer_1_WritePeriod(Timer_1_QUAD_PERIOD_INIT_VALUE);
  54:Generated_Source\PSoC4/Timer_1.c ****         Timer_1_WriteCounter(Timer_1_QUAD_PERIOD_INIT_VALUE);
  55:Generated_Source\PSoC4/Timer_1.c ****     #endif  /* (Timer_1__QUAD == Timer_1_CONFIG) */
  56:Generated_Source\PSoC4/Timer_1.c **** 
  57:Generated_Source\PSoC4/Timer_1.c ****     #if (Timer_1__TIMER == Timer_1_CONFIG)
  58:Generated_Source\PSoC4/Timer_1.c ****         Timer_1_CONTROL_REG = Timer_1_CTRL_TIMER_BASE_CONFIG;
  40              		.loc 1 58 0
  41 0004 094B     		ldr	r3, .L2
  42 0006 8022     		mov	r2, #128
  43 0008 9204     		lsl	r2, r2, #18
  44 000a 1A60     		str	r2, [r3]
  59:Generated_Source\PSoC4/Timer_1.c ****         
  60:Generated_Source\PSoC4/Timer_1.c ****         /* Set values from customizer to CTRL1 */
  61:Generated_Source\PSoC4/Timer_1.c ****         Timer_1_TRIG_CONTROL1_REG  = Timer_1_TIMER_SIGNALS_MODES;
  45              		.loc 1 61 0
  46 000c 084B     		ldr	r3, .L2+4
  47 000e 0C22     		mov	r2, #12
  48 0010 1A60     		str	r2, [r3]
  62:Generated_Source\PSoC4/Timer_1.c ****     
  63:Generated_Source\PSoC4/Timer_1.c ****         /* Set values from customizer to INTR */
  64:Generated_Source\PSoC4/Timer_1.c ****         Timer_1_SetInterruptMode(Timer_1_TC_INTERRUPT_MASK);
  49              		.loc 1 64 0
  50 0012 0120     		mov	r0, #1
ARM GAS  C:\Users\SHAHIL~1\AppData\Local\Temp\ccJVPaxU.s 			page 3


  51 0014 FFF7FEFF 		bl	Timer_1_SetInterruptMode
  65:Generated_Source\PSoC4/Timer_1.c ****         
  66:Generated_Source\PSoC4/Timer_1.c ****         /* Set other values from customizer */
  67:Generated_Source\PSoC4/Timer_1.c ****         Timer_1_WritePeriod(Timer_1_TC_PERIOD_VALUE );
  52              		.loc 1 67 0
  53 0018 064B     		ldr	r3, .L2+8
  54 001a 181C     		mov	r0, r3
  55 001c FFF7FEFF 		bl	Timer_1_WritePeriod
  68:Generated_Source\PSoC4/Timer_1.c **** 
  69:Generated_Source\PSoC4/Timer_1.c ****         #if (Timer_1__COMPARE == Timer_1_TC_COMP_CAP_MODE)
  70:Generated_Source\PSoC4/Timer_1.c ****             Timer_1_WriteCompare(Timer_1_TC_COMPARE_VALUE);
  71:Generated_Source\PSoC4/Timer_1.c **** 
  72:Generated_Source\PSoC4/Timer_1.c ****             #if (1u == Timer_1_TC_COMPARE_SWAP)
  73:Generated_Source\PSoC4/Timer_1.c ****                 Timer_1_SetCompareSwap(1u);
  74:Generated_Source\PSoC4/Timer_1.c ****                 Timer_1_WriteCompareBuf(Timer_1_TC_COMPARE_BUF_VALUE);
  75:Generated_Source\PSoC4/Timer_1.c ****             #endif  /* (1u == Timer_1_TC_COMPARE_SWAP) */
  76:Generated_Source\PSoC4/Timer_1.c ****         #endif  /* (Timer_1__COMPARE == Timer_1_TC_COMP_CAP_MODE) */
  77:Generated_Source\PSoC4/Timer_1.c **** 
  78:Generated_Source\PSoC4/Timer_1.c ****         /* Initialize counter value */
  79:Generated_Source\PSoC4/Timer_1.c ****         #if (Timer_1_CY_TCPWM_V2 && Timer_1_TIMER_UPDOWN_CNT_USED && !Timer_1_CY_TCPWM_4000)
  80:Generated_Source\PSoC4/Timer_1.c ****             Timer_1_WriteCounter(1u);
  81:Generated_Source\PSoC4/Timer_1.c ****         #elif(Timer_1__COUNT_DOWN == Timer_1_TC_COUNTER_MODE)
  82:Generated_Source\PSoC4/Timer_1.c ****             Timer_1_WriteCounter(Timer_1_TC_PERIOD_VALUE);
  83:Generated_Source\PSoC4/Timer_1.c ****         #else
  84:Generated_Source\PSoC4/Timer_1.c ****             Timer_1_WriteCounter(0u);
  56              		.loc 1 84 0
  57 0020 0020     		mov	r0, #0
  58 0022 FFF7FEFF 		bl	Timer_1_WriteCounter
  85:Generated_Source\PSoC4/Timer_1.c ****         #endif /* (Timer_1_CY_TCPWM_V2 && Timer_1_TIMER_UPDOWN_CNT_USED && !Timer_1_CY_TCPWM_4000) 
  86:Generated_Source\PSoC4/Timer_1.c ****     #endif  /* (Timer_1__TIMER == Timer_1_CONFIG) */
  87:Generated_Source\PSoC4/Timer_1.c **** 
  88:Generated_Source\PSoC4/Timer_1.c ****     #if (Timer_1__PWM_SEL == Timer_1_CONFIG)
  89:Generated_Source\PSoC4/Timer_1.c ****         Timer_1_CONTROL_REG = Timer_1_CTRL_PWM_BASE_CONFIG;
  90:Generated_Source\PSoC4/Timer_1.c **** 
  91:Generated_Source\PSoC4/Timer_1.c ****         #if (Timer_1__PWM_PR == Timer_1_PWM_MODE)
  92:Generated_Source\PSoC4/Timer_1.c ****             Timer_1_CONTROL_REG |= Timer_1_CTRL_PWM_RUN_MODE;
  93:Generated_Source\PSoC4/Timer_1.c ****             Timer_1_WriteCounter(Timer_1_PWM_PR_INIT_VALUE);
  94:Generated_Source\PSoC4/Timer_1.c ****         #else
  95:Generated_Source\PSoC4/Timer_1.c ****             Timer_1_CONTROL_REG |= Timer_1_CTRL_PWM_ALIGN | Timer_1_CTRL_PWM_KILL_EVENT;
  96:Generated_Source\PSoC4/Timer_1.c ****             
  97:Generated_Source\PSoC4/Timer_1.c ****             /* Initialize counter value */
  98:Generated_Source\PSoC4/Timer_1.c ****             #if (Timer_1_CY_TCPWM_V2 && Timer_1_PWM_UPDOWN_CNT_USED && !Timer_1_CY_TCPWM_4000)
  99:Generated_Source\PSoC4/Timer_1.c ****                 Timer_1_WriteCounter(1u);
 100:Generated_Source\PSoC4/Timer_1.c ****             #elif (Timer_1__RIGHT == Timer_1_PWM_ALIGN)
 101:Generated_Source\PSoC4/Timer_1.c ****                 Timer_1_WriteCounter(Timer_1_PWM_PERIOD_VALUE);
 102:Generated_Source\PSoC4/Timer_1.c ****             #else 
 103:Generated_Source\PSoC4/Timer_1.c ****                 Timer_1_WriteCounter(0u);
 104:Generated_Source\PSoC4/Timer_1.c ****             #endif  /* (Timer_1_CY_TCPWM_V2 && Timer_1_PWM_UPDOWN_CNT_USED && !Timer_1_CY_TCPWM_400
 105:Generated_Source\PSoC4/Timer_1.c ****         #endif  /* (Timer_1__PWM_PR == Timer_1_PWM_MODE) */
 106:Generated_Source\PSoC4/Timer_1.c **** 
 107:Generated_Source\PSoC4/Timer_1.c ****         #if (Timer_1__PWM_DT == Timer_1_PWM_MODE)
 108:Generated_Source\PSoC4/Timer_1.c ****             Timer_1_CONTROL_REG |= Timer_1_CTRL_PWM_DEAD_TIME_CYCLE;
 109:Generated_Source\PSoC4/Timer_1.c ****         #endif  /* (Timer_1__PWM_DT == Timer_1_PWM_MODE) */
 110:Generated_Source\PSoC4/Timer_1.c **** 
 111:Generated_Source\PSoC4/Timer_1.c ****         #if (Timer_1__PWM == Timer_1_PWM_MODE)
 112:Generated_Source\PSoC4/Timer_1.c ****             Timer_1_CONTROL_REG |= Timer_1_CTRL_PWM_PRESCALER;
 113:Generated_Source\PSoC4/Timer_1.c ****         #endif  /* (Timer_1__PWM == Timer_1_PWM_MODE) */
ARM GAS  C:\Users\SHAHIL~1\AppData\Local\Temp\ccJVPaxU.s 			page 4


 114:Generated_Source\PSoC4/Timer_1.c **** 
 115:Generated_Source\PSoC4/Timer_1.c ****         /* Set values from customizer to CTRL1 */
 116:Generated_Source\PSoC4/Timer_1.c ****         Timer_1_TRIG_CONTROL1_REG  = Timer_1_PWM_SIGNALS_MODES;
 117:Generated_Source\PSoC4/Timer_1.c ****     
 118:Generated_Source\PSoC4/Timer_1.c ****         /* Set values from customizer to INTR */
 119:Generated_Source\PSoC4/Timer_1.c ****         Timer_1_SetInterruptMode(Timer_1_PWM_INTERRUPT_MASK);
 120:Generated_Source\PSoC4/Timer_1.c **** 
 121:Generated_Source\PSoC4/Timer_1.c ****         /* Set values from customizer to CTRL2 */
 122:Generated_Source\PSoC4/Timer_1.c ****         #if (Timer_1__PWM_PR == Timer_1_PWM_MODE)
 123:Generated_Source\PSoC4/Timer_1.c ****             Timer_1_TRIG_CONTROL2_REG =
 124:Generated_Source\PSoC4/Timer_1.c ****                     (Timer_1_CC_MATCH_NO_CHANGE    |
 125:Generated_Source\PSoC4/Timer_1.c ****                     Timer_1_OVERLOW_NO_CHANGE      |
 126:Generated_Source\PSoC4/Timer_1.c ****                     Timer_1_UNDERFLOW_NO_CHANGE);
 127:Generated_Source\PSoC4/Timer_1.c ****         #else
 128:Generated_Source\PSoC4/Timer_1.c ****             #if (Timer_1__LEFT == Timer_1_PWM_ALIGN)
 129:Generated_Source\PSoC4/Timer_1.c ****                 Timer_1_TRIG_CONTROL2_REG = Timer_1_PWM_MODE_LEFT;
 130:Generated_Source\PSoC4/Timer_1.c ****             #endif  /* ( Timer_1_PWM_LEFT == Timer_1_PWM_ALIGN) */
 131:Generated_Source\PSoC4/Timer_1.c **** 
 132:Generated_Source\PSoC4/Timer_1.c ****             #if (Timer_1__RIGHT == Timer_1_PWM_ALIGN)
 133:Generated_Source\PSoC4/Timer_1.c ****                 Timer_1_TRIG_CONTROL2_REG = Timer_1_PWM_MODE_RIGHT;
 134:Generated_Source\PSoC4/Timer_1.c ****             #endif  /* ( Timer_1_PWM_RIGHT == Timer_1_PWM_ALIGN) */
 135:Generated_Source\PSoC4/Timer_1.c **** 
 136:Generated_Source\PSoC4/Timer_1.c ****             #if (Timer_1__CENTER == Timer_1_PWM_ALIGN)
 137:Generated_Source\PSoC4/Timer_1.c ****                 Timer_1_TRIG_CONTROL2_REG = Timer_1_PWM_MODE_CENTER;
 138:Generated_Source\PSoC4/Timer_1.c ****             #endif  /* ( Timer_1_PWM_CENTER == Timer_1_PWM_ALIGN) */
 139:Generated_Source\PSoC4/Timer_1.c **** 
 140:Generated_Source\PSoC4/Timer_1.c ****             #if (Timer_1__ASYMMETRIC == Timer_1_PWM_ALIGN)
 141:Generated_Source\PSoC4/Timer_1.c ****                 Timer_1_TRIG_CONTROL2_REG = Timer_1_PWM_MODE_ASYM;
 142:Generated_Source\PSoC4/Timer_1.c ****             #endif  /* (Timer_1__ASYMMETRIC == Timer_1_PWM_ALIGN) */
 143:Generated_Source\PSoC4/Timer_1.c ****         #endif  /* (Timer_1__PWM_PR == Timer_1_PWM_MODE) */
 144:Generated_Source\PSoC4/Timer_1.c **** 
 145:Generated_Source\PSoC4/Timer_1.c ****         /* Set other values from customizer */
 146:Generated_Source\PSoC4/Timer_1.c ****         Timer_1_WritePeriod(Timer_1_PWM_PERIOD_VALUE );
 147:Generated_Source\PSoC4/Timer_1.c ****         Timer_1_WriteCompare(Timer_1_PWM_COMPARE_VALUE);
 148:Generated_Source\PSoC4/Timer_1.c **** 
 149:Generated_Source\PSoC4/Timer_1.c ****         #if (1u == Timer_1_PWM_COMPARE_SWAP)
 150:Generated_Source\PSoC4/Timer_1.c ****             Timer_1_SetCompareSwap(1u);
 151:Generated_Source\PSoC4/Timer_1.c ****             Timer_1_WriteCompareBuf(Timer_1_PWM_COMPARE_BUF_VALUE);
 152:Generated_Source\PSoC4/Timer_1.c ****         #endif  /* (1u == Timer_1_PWM_COMPARE_SWAP) */
 153:Generated_Source\PSoC4/Timer_1.c **** 
 154:Generated_Source\PSoC4/Timer_1.c ****         #if (1u == Timer_1_PWM_PERIOD_SWAP)
 155:Generated_Source\PSoC4/Timer_1.c ****             Timer_1_SetPeriodSwap(1u);
 156:Generated_Source\PSoC4/Timer_1.c ****             Timer_1_WritePeriodBuf(Timer_1_PWM_PERIOD_BUF_VALUE);
 157:Generated_Source\PSoC4/Timer_1.c ****         #endif  /* (1u == Timer_1_PWM_PERIOD_SWAP) */
 158:Generated_Source\PSoC4/Timer_1.c ****     #endif  /* (Timer_1__PWM_SEL == Timer_1_CONFIG) */
 159:Generated_Source\PSoC4/Timer_1.c ****     
 160:Generated_Source\PSoC4/Timer_1.c **** }
  59              		.loc 1 160 0
  60 0026 BD46     		mov	sp, r7
  61              		@ sp needed
  62 0028 80BD     		pop	{r7, pc}
  63              	.L3:
  64 002a C046     		.align	2
  65              	.L2:
  66 002c 00010540 		.word	1074069760
  67 0030 24010540 		.word	1074069796
  68 0034 FFFF0000 		.word	65535
ARM GAS  C:\Users\SHAHIL~1\AppData\Local\Temp\ccJVPaxU.s 			page 5


  69              		.cfi_endproc
  70              	.LFE0:
  71              		.size	Timer_1_Init, .-Timer_1_Init
  72              		.section	.text.Timer_1_Enable,"ax",%progbits
  73              		.align	2
  74              		.global	Timer_1_Enable
  75              		.code	16
  76              		.thumb_func
  77              		.type	Timer_1_Enable, %function
  78              	Timer_1_Enable:
  79              	.LFB1:
 161:Generated_Source\PSoC4/Timer_1.c **** 
 162:Generated_Source\PSoC4/Timer_1.c **** 
 163:Generated_Source\PSoC4/Timer_1.c **** /*******************************************************************************
 164:Generated_Source\PSoC4/Timer_1.c **** * Function Name: Timer_1_Enable
 165:Generated_Source\PSoC4/Timer_1.c **** ********************************************************************************
 166:Generated_Source\PSoC4/Timer_1.c **** *
 167:Generated_Source\PSoC4/Timer_1.c **** * Summary:
 168:Generated_Source\PSoC4/Timer_1.c **** *  Enables the Timer_1.
 169:Generated_Source\PSoC4/Timer_1.c **** *
 170:Generated_Source\PSoC4/Timer_1.c **** * Parameters:
 171:Generated_Source\PSoC4/Timer_1.c **** *  None
 172:Generated_Source\PSoC4/Timer_1.c **** *
 173:Generated_Source\PSoC4/Timer_1.c **** * Return:
 174:Generated_Source\PSoC4/Timer_1.c **** *  None
 175:Generated_Source\PSoC4/Timer_1.c **** *
 176:Generated_Source\PSoC4/Timer_1.c **** *******************************************************************************/
 177:Generated_Source\PSoC4/Timer_1.c **** void Timer_1_Enable(void)
 178:Generated_Source\PSoC4/Timer_1.c **** {
  80              		.loc 1 178 0
  81              		.cfi_startproc
  82 0000 90B5     		push	{r4, r7, lr}
  83              		.cfi_def_cfa_offset 12
  84              		.cfi_offset 4, -12
  85              		.cfi_offset 7, -8
  86              		.cfi_offset 14, -4
  87 0002 83B0     		sub	sp, sp, #12
  88              		.cfi_def_cfa_offset 24
  89 0004 00AF     		add	r7, sp, #0
  90              		.cfi_def_cfa_register 7
 179:Generated_Source\PSoC4/Timer_1.c ****     uint8 enableInterrupts;
 180:Generated_Source\PSoC4/Timer_1.c **** 
 181:Generated_Source\PSoC4/Timer_1.c ****     enableInterrupts = CyEnterCriticalSection();
  91              		.loc 1 181 0
  92 0006 FC1D     		add	r4, r7, #7
  93 0008 FFF7FEFF 		bl	CyEnterCriticalSection
  94 000c 031C     		mov	r3, r0
  95 000e 2370     		strb	r3, [r4]
 182:Generated_Source\PSoC4/Timer_1.c ****     Timer_1_BLOCK_CONTROL_REG |= Timer_1_MASK;
  96              		.loc 1 182 0
  97 0010 084B     		ldr	r3, .L5
  98 0012 084A     		ldr	r2, .L5
  99 0014 1268     		ldr	r2, [r2]
 100 0016 0121     		mov	r1, #1
 101 0018 0A43     		orr	r2, r1
 102 001a 1A60     		str	r2, [r3]
 183:Generated_Source\PSoC4/Timer_1.c ****     CyExitCriticalSection(enableInterrupts);
ARM GAS  C:\Users\SHAHIL~1\AppData\Local\Temp\ccJVPaxU.s 			page 6


 103              		.loc 1 183 0
 104 001c FB1D     		add	r3, r7, #7
 105 001e 1B78     		ldrb	r3, [r3]
 106 0020 181C     		mov	r0, r3
 107 0022 FFF7FEFF 		bl	CyExitCriticalSection
 184:Generated_Source\PSoC4/Timer_1.c **** 
 185:Generated_Source\PSoC4/Timer_1.c ****     /* Start Timer or PWM if start input is absent */
 186:Generated_Source\PSoC4/Timer_1.c ****     #if (Timer_1__PWM_SEL == Timer_1_CONFIG)
 187:Generated_Source\PSoC4/Timer_1.c ****         #if (0u == Timer_1_PWM_START_SIGNAL_PRESENT)
 188:Generated_Source\PSoC4/Timer_1.c ****             Timer_1_TriggerCommand(Timer_1_MASK, Timer_1_CMD_START);
 189:Generated_Source\PSoC4/Timer_1.c ****         #endif /* (0u == Timer_1_PWM_START_SIGNAL_PRESENT) */
 190:Generated_Source\PSoC4/Timer_1.c ****     #endif /* (Timer_1__PWM_SEL == Timer_1_CONFIG) */
 191:Generated_Source\PSoC4/Timer_1.c **** 
 192:Generated_Source\PSoC4/Timer_1.c ****     #if (Timer_1__TIMER == Timer_1_CONFIG)
 193:Generated_Source\PSoC4/Timer_1.c ****         #if (0u == Timer_1_TC_START_SIGNAL_PRESENT)
 194:Generated_Source\PSoC4/Timer_1.c ****             Timer_1_TriggerCommand(Timer_1_MASK, Timer_1_CMD_START);
 108              		.loc 1 194 0
 109 0026 0120     		mov	r0, #1
 110 0028 1821     		mov	r1, #24
 111 002a FFF7FEFF 		bl	Timer_1_TriggerCommand
 195:Generated_Source\PSoC4/Timer_1.c ****         #endif /* (0u == Timer_1_TC_START_SIGNAL_PRESENT) */
 196:Generated_Source\PSoC4/Timer_1.c ****     #endif /* (Timer_1__TIMER == Timer_1_CONFIG) */
 197:Generated_Source\PSoC4/Timer_1.c ****     
 198:Generated_Source\PSoC4/Timer_1.c ****     #if (Timer_1__QUAD == Timer_1_CONFIG)
 199:Generated_Source\PSoC4/Timer_1.c ****         #if (0u != Timer_1_QUAD_AUTO_START)
 200:Generated_Source\PSoC4/Timer_1.c ****             Timer_1_TriggerCommand(Timer_1_MASK, Timer_1_CMD_RELOAD);
 201:Generated_Source\PSoC4/Timer_1.c ****         #endif /* (0u != Timer_1_QUAD_AUTO_START) */
 202:Generated_Source\PSoC4/Timer_1.c ****     #endif  /* (Timer_1__QUAD == Timer_1_CONFIG) */
 203:Generated_Source\PSoC4/Timer_1.c **** }
 112              		.loc 1 203 0
 113 002e BD46     		mov	sp, r7
 114 0030 03B0     		add	sp, sp, #12
 115              		@ sp needed
 116 0032 90BD     		pop	{r4, r7, pc}
 117              	.L6:
 118              		.align	2
 119              	.L5:
 120 0034 00000540 		.word	1074069504
 121              		.cfi_endproc
 122              	.LFE1:
 123              		.size	Timer_1_Enable, .-Timer_1_Enable
 124              		.section	.text.Timer_1_Start,"ax",%progbits
 125              		.align	2
 126              		.global	Timer_1_Start
 127              		.code	16
 128              		.thumb_func
 129              		.type	Timer_1_Start, %function
 130              	Timer_1_Start:
 131              	.LFB2:
 204:Generated_Source\PSoC4/Timer_1.c **** 
 205:Generated_Source\PSoC4/Timer_1.c **** 
 206:Generated_Source\PSoC4/Timer_1.c **** /*******************************************************************************
 207:Generated_Source\PSoC4/Timer_1.c **** * Function Name: Timer_1_Start
 208:Generated_Source\PSoC4/Timer_1.c **** ********************************************************************************
 209:Generated_Source\PSoC4/Timer_1.c **** *
 210:Generated_Source\PSoC4/Timer_1.c **** * Summary:
 211:Generated_Source\PSoC4/Timer_1.c **** *  Initializes the Timer_1 with default customizer
ARM GAS  C:\Users\SHAHIL~1\AppData\Local\Temp\ccJVPaxU.s 			page 7


 212:Generated_Source\PSoC4/Timer_1.c **** *  values when called the first time and enables the Timer_1.
 213:Generated_Source\PSoC4/Timer_1.c **** *  For subsequent calls the configuration is left unchanged and the component is
 214:Generated_Source\PSoC4/Timer_1.c **** *  just enabled.
 215:Generated_Source\PSoC4/Timer_1.c **** *
 216:Generated_Source\PSoC4/Timer_1.c **** * Parameters:
 217:Generated_Source\PSoC4/Timer_1.c **** *  None
 218:Generated_Source\PSoC4/Timer_1.c **** *
 219:Generated_Source\PSoC4/Timer_1.c **** * Return:
 220:Generated_Source\PSoC4/Timer_1.c **** *  None
 221:Generated_Source\PSoC4/Timer_1.c **** *
 222:Generated_Source\PSoC4/Timer_1.c **** * Global variables:
 223:Generated_Source\PSoC4/Timer_1.c **** *  Timer_1_initVar: global variable is used to indicate initial
 224:Generated_Source\PSoC4/Timer_1.c **** *  configuration of this component.  The variable is initialized to zero and set
 225:Generated_Source\PSoC4/Timer_1.c **** *  to 1 the first time Timer_1_Start() is called. This allows
 226:Generated_Source\PSoC4/Timer_1.c **** *  enabling/disabling a component without re-initialization in all subsequent
 227:Generated_Source\PSoC4/Timer_1.c **** *  calls to the Timer_1_Start() routine.
 228:Generated_Source\PSoC4/Timer_1.c **** *
 229:Generated_Source\PSoC4/Timer_1.c **** *******************************************************************************/
 230:Generated_Source\PSoC4/Timer_1.c **** void Timer_1_Start(void)
 231:Generated_Source\PSoC4/Timer_1.c **** {
 132              		.loc 1 231 0
 133              		.cfi_startproc
 134 0000 80B5     		push	{r7, lr}
 135              		.cfi_def_cfa_offset 8
 136              		.cfi_offset 7, -8
 137              		.cfi_offset 14, -4
 138 0002 00AF     		add	r7, sp, #0
 139              		.cfi_def_cfa_register 7
 232:Generated_Source\PSoC4/Timer_1.c ****     if (0u == Timer_1_initVar)
 140              		.loc 1 232 0
 141 0004 064B     		ldr	r3, .L9
 142 0006 1B78     		ldrb	r3, [r3]
 143 0008 002B     		cmp	r3, #0
 144 000a 04D1     		bne	.L8
 233:Generated_Source\PSoC4/Timer_1.c ****     {
 234:Generated_Source\PSoC4/Timer_1.c ****         Timer_1_Init();
 145              		.loc 1 234 0
 146 000c FFF7FEFF 		bl	Timer_1_Init
 235:Generated_Source\PSoC4/Timer_1.c ****         Timer_1_initVar = 1u;
 147              		.loc 1 235 0
 148 0010 034B     		ldr	r3, .L9
 149 0012 0122     		mov	r2, #1
 150 0014 1A70     		strb	r2, [r3]
 151              	.L8:
 236:Generated_Source\PSoC4/Timer_1.c ****     }
 237:Generated_Source\PSoC4/Timer_1.c **** 
 238:Generated_Source\PSoC4/Timer_1.c ****     Timer_1_Enable();
 152              		.loc 1 238 0
 153 0016 FFF7FEFF 		bl	Timer_1_Enable
 239:Generated_Source\PSoC4/Timer_1.c **** }
 154              		.loc 1 239 0
 155 001a BD46     		mov	sp, r7
 156              		@ sp needed
 157 001c 80BD     		pop	{r7, pc}
 158              	.L10:
 159 001e C046     		.align	2
 160              	.L9:
ARM GAS  C:\Users\SHAHIL~1\AppData\Local\Temp\ccJVPaxU.s 			page 8


 161 0020 00000000 		.word	Timer_1_initVar
 162              		.cfi_endproc
 163              	.LFE2:
 164              		.size	Timer_1_Start, .-Timer_1_Start
 165              		.section	.text.Timer_1_Stop,"ax",%progbits
 166              		.align	2
 167              		.global	Timer_1_Stop
 168              		.code	16
 169              		.thumb_func
 170              		.type	Timer_1_Stop, %function
 171              	Timer_1_Stop:
 172              	.LFB3:
 240:Generated_Source\PSoC4/Timer_1.c **** 
 241:Generated_Source\PSoC4/Timer_1.c **** 
 242:Generated_Source\PSoC4/Timer_1.c **** /*******************************************************************************
 243:Generated_Source\PSoC4/Timer_1.c **** * Function Name: Timer_1_Stop
 244:Generated_Source\PSoC4/Timer_1.c **** ********************************************************************************
 245:Generated_Source\PSoC4/Timer_1.c **** *
 246:Generated_Source\PSoC4/Timer_1.c **** * Summary:
 247:Generated_Source\PSoC4/Timer_1.c **** *  Disables the Timer_1.
 248:Generated_Source\PSoC4/Timer_1.c **** *
 249:Generated_Source\PSoC4/Timer_1.c **** * Parameters:
 250:Generated_Source\PSoC4/Timer_1.c **** *  None
 251:Generated_Source\PSoC4/Timer_1.c **** *
 252:Generated_Source\PSoC4/Timer_1.c **** * Return:
 253:Generated_Source\PSoC4/Timer_1.c **** *  None
 254:Generated_Source\PSoC4/Timer_1.c **** *
 255:Generated_Source\PSoC4/Timer_1.c **** *******************************************************************************/
 256:Generated_Source\PSoC4/Timer_1.c **** void Timer_1_Stop(void)
 257:Generated_Source\PSoC4/Timer_1.c **** {
 173              		.loc 1 257 0
 174              		.cfi_startproc
 175 0000 90B5     		push	{r4, r7, lr}
 176              		.cfi_def_cfa_offset 12
 177              		.cfi_offset 4, -12
 178              		.cfi_offset 7, -8
 179              		.cfi_offset 14, -4
 180 0002 83B0     		sub	sp, sp, #12
 181              		.cfi_def_cfa_offset 24
 182 0004 00AF     		add	r7, sp, #0
 183              		.cfi_def_cfa_register 7
 258:Generated_Source\PSoC4/Timer_1.c ****     uint8 enableInterrupts;
 259:Generated_Source\PSoC4/Timer_1.c **** 
 260:Generated_Source\PSoC4/Timer_1.c ****     enableInterrupts = CyEnterCriticalSection();
 184              		.loc 1 260 0
 185 0006 FC1D     		add	r4, r7, #7
 186 0008 FFF7FEFF 		bl	CyEnterCriticalSection
 187 000c 031C     		mov	r3, r0
 188 000e 2370     		strb	r3, [r4]
 261:Generated_Source\PSoC4/Timer_1.c **** 
 262:Generated_Source\PSoC4/Timer_1.c ****     Timer_1_BLOCK_CONTROL_REG &= (uint32)~Timer_1_MASK;
 189              		.loc 1 262 0
 190 0010 064B     		ldr	r3, .L12
 191 0012 064A     		ldr	r2, .L12
 192 0014 1268     		ldr	r2, [r2]
 193 0016 0121     		mov	r1, #1
 194 0018 8A43     		bic	r2, r1
ARM GAS  C:\Users\SHAHIL~1\AppData\Local\Temp\ccJVPaxU.s 			page 9


 195 001a 1A60     		str	r2, [r3]
 263:Generated_Source\PSoC4/Timer_1.c **** 
 264:Generated_Source\PSoC4/Timer_1.c ****     CyExitCriticalSection(enableInterrupts);
 196              		.loc 1 264 0
 197 001c FB1D     		add	r3, r7, #7
 198 001e 1B78     		ldrb	r3, [r3]
 199 0020 181C     		mov	r0, r3
 200 0022 FFF7FEFF 		bl	CyExitCriticalSection
 265:Generated_Source\PSoC4/Timer_1.c **** }
 201              		.loc 1 265 0
 202 0026 BD46     		mov	sp, r7
 203 0028 03B0     		add	sp, sp, #12
 204              		@ sp needed
 205 002a 90BD     		pop	{r4, r7, pc}
 206              	.L13:
 207              		.align	2
 208              	.L12:
 209 002c 00000540 		.word	1074069504
 210              		.cfi_endproc
 211              	.LFE3:
 212              		.size	Timer_1_Stop, .-Timer_1_Stop
 213              		.section	.text.Timer_1_SetMode,"ax",%progbits
 214              		.align	2
 215              		.global	Timer_1_SetMode
 216              		.code	16
 217              		.thumb_func
 218              		.type	Timer_1_SetMode, %function
 219              	Timer_1_SetMode:
 220              	.LFB4:
 266:Generated_Source\PSoC4/Timer_1.c **** 
 267:Generated_Source\PSoC4/Timer_1.c **** 
 268:Generated_Source\PSoC4/Timer_1.c **** /*******************************************************************************
 269:Generated_Source\PSoC4/Timer_1.c **** * Function Name: Timer_1_SetMode
 270:Generated_Source\PSoC4/Timer_1.c **** ********************************************************************************
 271:Generated_Source\PSoC4/Timer_1.c **** *
 272:Generated_Source\PSoC4/Timer_1.c **** * Summary:
 273:Generated_Source\PSoC4/Timer_1.c **** *  Sets the operation mode of the Timer_1. This function is used when
 274:Generated_Source\PSoC4/Timer_1.c **** *  configured as a generic Timer_1 and the actual mode of operation is
 275:Generated_Source\PSoC4/Timer_1.c **** *  set at runtime. The mode must be set while the component is disabled.
 276:Generated_Source\PSoC4/Timer_1.c **** *
 277:Generated_Source\PSoC4/Timer_1.c **** * Parameters:
 278:Generated_Source\PSoC4/Timer_1.c **** *  mode: Mode for the Timer_1 to operate in
 279:Generated_Source\PSoC4/Timer_1.c **** *   Values:
 280:Generated_Source\PSoC4/Timer_1.c **** *   - Timer_1_MODE_TIMER_COMPARE - Timer / Counter with
 281:Generated_Source\PSoC4/Timer_1.c **** *                                                 compare capability
 282:Generated_Source\PSoC4/Timer_1.c **** *         - Timer_1_MODE_TIMER_CAPTURE - Timer / Counter with
 283:Generated_Source\PSoC4/Timer_1.c **** *                                                 capture capability
 284:Generated_Source\PSoC4/Timer_1.c **** *         - Timer_1_MODE_QUAD - Quadrature decoder
 285:Generated_Source\PSoC4/Timer_1.c **** *         - Timer_1_MODE_PWM - PWM
 286:Generated_Source\PSoC4/Timer_1.c **** *         - Timer_1_MODE_PWM_DT - PWM with dead time
 287:Generated_Source\PSoC4/Timer_1.c **** *         - Timer_1_MODE_PWM_PR - PWM with pseudo random capability
 288:Generated_Source\PSoC4/Timer_1.c **** *
 289:Generated_Source\PSoC4/Timer_1.c **** * Return:
 290:Generated_Source\PSoC4/Timer_1.c **** *  None
 291:Generated_Source\PSoC4/Timer_1.c **** *
 292:Generated_Source\PSoC4/Timer_1.c **** *******************************************************************************/
 293:Generated_Source\PSoC4/Timer_1.c **** void Timer_1_SetMode(uint32 mode)
ARM GAS  C:\Users\SHAHIL~1\AppData\Local\Temp\ccJVPaxU.s 			page 10


 294:Generated_Source\PSoC4/Timer_1.c **** {
 221              		.loc 1 294 0
 222              		.cfi_startproc
 223 0000 90B5     		push	{r4, r7, lr}
 224              		.cfi_def_cfa_offset 12
 225              		.cfi_offset 4, -12
 226              		.cfi_offset 7, -8
 227              		.cfi_offset 14, -4
 228 0002 85B0     		sub	sp, sp, #20
 229              		.cfi_def_cfa_offset 32
 230 0004 00AF     		add	r7, sp, #0
 231              		.cfi_def_cfa_register 7
 232 0006 7860     		str	r0, [r7, #4]
 295:Generated_Source\PSoC4/Timer_1.c ****     uint8 enableInterrupts;
 296:Generated_Source\PSoC4/Timer_1.c **** 
 297:Generated_Source\PSoC4/Timer_1.c ****     enableInterrupts = CyEnterCriticalSection();
 233              		.loc 1 297 0
 234 0008 0F23     		mov	r3, #15
 235 000a FC18     		add	r4, r7, r3
 236 000c FFF7FEFF 		bl	CyEnterCriticalSection
 237 0010 031C     		mov	r3, r0
 238 0012 2370     		strb	r3, [r4]
 298:Generated_Source\PSoC4/Timer_1.c **** 
 299:Generated_Source\PSoC4/Timer_1.c ****     Timer_1_CONTROL_REG &= (uint32)~Timer_1_MODE_MASK;
 239              		.loc 1 299 0
 240 0014 0A4B     		ldr	r3, .L15
 241 0016 0A4A     		ldr	r2, .L15
 242 0018 1268     		ldr	r2, [r2]
 243 001a 0A49     		ldr	r1, .L15+4
 244 001c 0A40     		and	r2, r1
 245 001e 1A60     		str	r2, [r3]
 300:Generated_Source\PSoC4/Timer_1.c ****     Timer_1_CONTROL_REG |= mode;
 246              		.loc 1 300 0
 247 0020 074B     		ldr	r3, .L15
 248 0022 074A     		ldr	r2, .L15
 249 0024 1168     		ldr	r1, [r2]
 250 0026 7A68     		ldr	r2, [r7, #4]
 251 0028 0A43     		orr	r2, r1
 252 002a 1A60     		str	r2, [r3]
 301:Generated_Source\PSoC4/Timer_1.c **** 
 302:Generated_Source\PSoC4/Timer_1.c ****     CyExitCriticalSection(enableInterrupts);
 253              		.loc 1 302 0
 254 002c 0F23     		mov	r3, #15
 255 002e FB18     		add	r3, r7, r3
 256 0030 1B78     		ldrb	r3, [r3]
 257 0032 181C     		mov	r0, r3
 258 0034 FFF7FEFF 		bl	CyExitCriticalSection
 303:Generated_Source\PSoC4/Timer_1.c **** }
 259              		.loc 1 303 0
 260 0038 BD46     		mov	sp, r7
 261 003a 05B0     		add	sp, sp, #20
 262              		@ sp needed
 263 003c 90BD     		pop	{r4, r7, pc}
 264              	.L16:
 265 003e C046     		.align	2
 266              	.L15:
 267 0040 00010540 		.word	1074069760
ARM GAS  C:\Users\SHAHIL~1\AppData\Local\Temp\ccJVPaxU.s 			page 11


 268 0044 FFFFFFF8 		.word	-117440513
 269              		.cfi_endproc
 270              	.LFE4:
 271              		.size	Timer_1_SetMode, .-Timer_1_SetMode
 272              		.section	.text.Timer_1_SetQDMode,"ax",%progbits
 273              		.align	2
 274              		.global	Timer_1_SetQDMode
 275              		.code	16
 276              		.thumb_func
 277              		.type	Timer_1_SetQDMode, %function
 278              	Timer_1_SetQDMode:
 279              	.LFB5:
 304:Generated_Source\PSoC4/Timer_1.c **** 
 305:Generated_Source\PSoC4/Timer_1.c **** 
 306:Generated_Source\PSoC4/Timer_1.c **** /*******************************************************************************
 307:Generated_Source\PSoC4/Timer_1.c **** * Function Name: Timer_1_SetQDMode
 308:Generated_Source\PSoC4/Timer_1.c **** ********************************************************************************
 309:Generated_Source\PSoC4/Timer_1.c **** *
 310:Generated_Source\PSoC4/Timer_1.c **** * Summary:
 311:Generated_Source\PSoC4/Timer_1.c **** *  Sets the the Quadrature Decoder to one of the 3 supported modes.
 312:Generated_Source\PSoC4/Timer_1.c **** *  Its functionality is only applicable to Quadrature Decoder operation.
 313:Generated_Source\PSoC4/Timer_1.c **** *
 314:Generated_Source\PSoC4/Timer_1.c **** * Parameters:
 315:Generated_Source\PSoC4/Timer_1.c **** *  qdMode: Quadrature Decoder mode
 316:Generated_Source\PSoC4/Timer_1.c **** *   Values:
 317:Generated_Source\PSoC4/Timer_1.c **** *         - Timer_1_MODE_X1 - Counts on phi 1 rising
 318:Generated_Source\PSoC4/Timer_1.c **** *         - Timer_1_MODE_X2 - Counts on both edges of phi1 (2x faster)
 319:Generated_Source\PSoC4/Timer_1.c **** *         - Timer_1_MODE_X4 - Counts on both edges of phi1 and phi2
 320:Generated_Source\PSoC4/Timer_1.c **** *                                        (4x faster)
 321:Generated_Source\PSoC4/Timer_1.c **** *
 322:Generated_Source\PSoC4/Timer_1.c **** * Return:
 323:Generated_Source\PSoC4/Timer_1.c **** *  None
 324:Generated_Source\PSoC4/Timer_1.c **** *
 325:Generated_Source\PSoC4/Timer_1.c **** *******************************************************************************/
 326:Generated_Source\PSoC4/Timer_1.c **** void Timer_1_SetQDMode(uint32 qdMode)
 327:Generated_Source\PSoC4/Timer_1.c **** {
 280              		.loc 1 327 0
 281              		.cfi_startproc
 282 0000 90B5     		push	{r4, r7, lr}
 283              		.cfi_def_cfa_offset 12
 284              		.cfi_offset 4, -12
 285              		.cfi_offset 7, -8
 286              		.cfi_offset 14, -4
 287 0002 85B0     		sub	sp, sp, #20
 288              		.cfi_def_cfa_offset 32
 289 0004 00AF     		add	r7, sp, #0
 290              		.cfi_def_cfa_register 7
 291 0006 7860     		str	r0, [r7, #4]
 328:Generated_Source\PSoC4/Timer_1.c ****     uint8 enableInterrupts;
 329:Generated_Source\PSoC4/Timer_1.c **** 
 330:Generated_Source\PSoC4/Timer_1.c ****     enableInterrupts = CyEnterCriticalSection();
 292              		.loc 1 330 0
 293 0008 0F23     		mov	r3, #15
 294 000a FC18     		add	r4, r7, r3
 295 000c FFF7FEFF 		bl	CyEnterCriticalSection
 296 0010 031C     		mov	r3, r0
 297 0012 2370     		strb	r3, [r4]
ARM GAS  C:\Users\SHAHIL~1\AppData\Local\Temp\ccJVPaxU.s 			page 12


 331:Generated_Source\PSoC4/Timer_1.c **** 
 332:Generated_Source\PSoC4/Timer_1.c ****     Timer_1_CONTROL_REG &= (uint32)~Timer_1_QUAD_MODE_MASK;
 298              		.loc 1 332 0
 299 0014 0A4B     		ldr	r3, .L18
 300 0016 0A4A     		ldr	r2, .L18
 301 0018 1268     		ldr	r2, [r2]
 302 001a 0A49     		ldr	r1, .L18+4
 303 001c 0A40     		and	r2, r1
 304 001e 1A60     		str	r2, [r3]
 333:Generated_Source\PSoC4/Timer_1.c ****     Timer_1_CONTROL_REG |= qdMode;
 305              		.loc 1 333 0
 306 0020 074B     		ldr	r3, .L18
 307 0022 074A     		ldr	r2, .L18
 308 0024 1168     		ldr	r1, [r2]
 309 0026 7A68     		ldr	r2, [r7, #4]
 310 0028 0A43     		orr	r2, r1
 311 002a 1A60     		str	r2, [r3]
 334:Generated_Source\PSoC4/Timer_1.c **** 
 335:Generated_Source\PSoC4/Timer_1.c ****     CyExitCriticalSection(enableInterrupts);
 312              		.loc 1 335 0
 313 002c 0F23     		mov	r3, #15
 314 002e FB18     		add	r3, r7, r3
 315 0030 1B78     		ldrb	r3, [r3]
 316 0032 181C     		mov	r0, r3
 317 0034 FFF7FEFF 		bl	CyExitCriticalSection
 336:Generated_Source\PSoC4/Timer_1.c **** }
 318              		.loc 1 336 0
 319 0038 BD46     		mov	sp, r7
 320 003a 05B0     		add	sp, sp, #20
 321              		@ sp needed
 322 003c 90BD     		pop	{r4, r7, pc}
 323              	.L19:
 324 003e C046     		.align	2
 325              	.L18:
 326 0040 00010540 		.word	1074069760
 327 0044 FFFF8FFF 		.word	-7340033
 328              		.cfi_endproc
 329              	.LFE5:
 330              		.size	Timer_1_SetQDMode, .-Timer_1_SetQDMode
 331              		.section	.text.Timer_1_SetPrescaler,"ax",%progbits
 332              		.align	2
 333              		.global	Timer_1_SetPrescaler
 334              		.code	16
 335              		.thumb_func
 336              		.type	Timer_1_SetPrescaler, %function
 337              	Timer_1_SetPrescaler:
 338              	.LFB6:
 337:Generated_Source\PSoC4/Timer_1.c **** 
 338:Generated_Source\PSoC4/Timer_1.c **** 
 339:Generated_Source\PSoC4/Timer_1.c **** /*******************************************************************************
 340:Generated_Source\PSoC4/Timer_1.c **** * Function Name: Timer_1_SetPrescaler
 341:Generated_Source\PSoC4/Timer_1.c **** ********************************************************************************
 342:Generated_Source\PSoC4/Timer_1.c **** *
 343:Generated_Source\PSoC4/Timer_1.c **** * Summary:
 344:Generated_Source\PSoC4/Timer_1.c **** *  Sets the prescaler value that is applied to the clock input.  Not applicable
 345:Generated_Source\PSoC4/Timer_1.c **** *  to a PWM with the dead time mode or Quadrature Decoder mode.
 346:Generated_Source\PSoC4/Timer_1.c **** *
ARM GAS  C:\Users\SHAHIL~1\AppData\Local\Temp\ccJVPaxU.s 			page 13


 347:Generated_Source\PSoC4/Timer_1.c **** * Parameters:
 348:Generated_Source\PSoC4/Timer_1.c **** *  prescaler: Prescaler divider value
 349:Generated_Source\PSoC4/Timer_1.c **** *   Values:
 350:Generated_Source\PSoC4/Timer_1.c **** *         - Timer_1_PRESCALE_DIVBY1    - Divide by 1 (no prescaling)
 351:Generated_Source\PSoC4/Timer_1.c **** *         - Timer_1_PRESCALE_DIVBY2    - Divide by 2
 352:Generated_Source\PSoC4/Timer_1.c **** *         - Timer_1_PRESCALE_DIVBY4    - Divide by 4
 353:Generated_Source\PSoC4/Timer_1.c **** *         - Timer_1_PRESCALE_DIVBY8    - Divide by 8
 354:Generated_Source\PSoC4/Timer_1.c **** *         - Timer_1_PRESCALE_DIVBY16   - Divide by 16
 355:Generated_Source\PSoC4/Timer_1.c **** *         - Timer_1_PRESCALE_DIVBY32   - Divide by 32
 356:Generated_Source\PSoC4/Timer_1.c **** *         - Timer_1_PRESCALE_DIVBY64   - Divide by 64
 357:Generated_Source\PSoC4/Timer_1.c **** *         - Timer_1_PRESCALE_DIVBY128  - Divide by 128
 358:Generated_Source\PSoC4/Timer_1.c **** *
 359:Generated_Source\PSoC4/Timer_1.c **** * Return:
 360:Generated_Source\PSoC4/Timer_1.c **** *  None
 361:Generated_Source\PSoC4/Timer_1.c **** *
 362:Generated_Source\PSoC4/Timer_1.c **** *******************************************************************************/
 363:Generated_Source\PSoC4/Timer_1.c **** void Timer_1_SetPrescaler(uint32 prescaler)
 364:Generated_Source\PSoC4/Timer_1.c **** {
 339              		.loc 1 364 0
 340              		.cfi_startproc
 341 0000 90B5     		push	{r4, r7, lr}
 342              		.cfi_def_cfa_offset 12
 343              		.cfi_offset 4, -12
 344              		.cfi_offset 7, -8
 345              		.cfi_offset 14, -4
 346 0002 85B0     		sub	sp, sp, #20
 347              		.cfi_def_cfa_offset 32
 348 0004 00AF     		add	r7, sp, #0
 349              		.cfi_def_cfa_register 7
 350 0006 7860     		str	r0, [r7, #4]
 365:Generated_Source\PSoC4/Timer_1.c ****     uint8 enableInterrupts;
 366:Generated_Source\PSoC4/Timer_1.c **** 
 367:Generated_Source\PSoC4/Timer_1.c ****     enableInterrupts = CyEnterCriticalSection();
 351              		.loc 1 367 0
 352 0008 0F23     		mov	r3, #15
 353 000a FC18     		add	r4, r7, r3
 354 000c FFF7FEFF 		bl	CyEnterCriticalSection
 355 0010 031C     		mov	r3, r0
 356 0012 2370     		strb	r3, [r4]
 368:Generated_Source\PSoC4/Timer_1.c **** 
 369:Generated_Source\PSoC4/Timer_1.c ****     Timer_1_CONTROL_REG &= (uint32)~Timer_1_PRESCALER_MASK;
 357              		.loc 1 369 0
 358 0014 0A4B     		ldr	r3, .L21
 359 0016 0A4A     		ldr	r2, .L21
 360 0018 1268     		ldr	r2, [r2]
 361 001a 0A49     		ldr	r1, .L21+4
 362 001c 0A40     		and	r2, r1
 363 001e 1A60     		str	r2, [r3]
 370:Generated_Source\PSoC4/Timer_1.c ****     Timer_1_CONTROL_REG |= prescaler;
 364              		.loc 1 370 0
 365 0020 074B     		ldr	r3, .L21
 366 0022 074A     		ldr	r2, .L21
 367 0024 1168     		ldr	r1, [r2]
 368 0026 7A68     		ldr	r2, [r7, #4]
 369 0028 0A43     		orr	r2, r1
 370 002a 1A60     		str	r2, [r3]
 371:Generated_Source\PSoC4/Timer_1.c **** 
ARM GAS  C:\Users\SHAHIL~1\AppData\Local\Temp\ccJVPaxU.s 			page 14


 372:Generated_Source\PSoC4/Timer_1.c ****     CyExitCriticalSection(enableInterrupts);
 371              		.loc 1 372 0
 372 002c 0F23     		mov	r3, #15
 373 002e FB18     		add	r3, r7, r3
 374 0030 1B78     		ldrb	r3, [r3]
 375 0032 181C     		mov	r0, r3
 376 0034 FFF7FEFF 		bl	CyExitCriticalSection
 373:Generated_Source\PSoC4/Timer_1.c **** }
 377              		.loc 1 373 0
 378 0038 BD46     		mov	sp, r7
 379 003a 05B0     		add	sp, sp, #20
 380              		@ sp needed
 381 003c 90BD     		pop	{r4, r7, pc}
 382              	.L22:
 383 003e C046     		.align	2
 384              	.L21:
 385 0040 00010540 		.word	1074069760
 386 0044 FF00FFFF 		.word	-65281
 387              		.cfi_endproc
 388              	.LFE6:
 389              		.size	Timer_1_SetPrescaler, .-Timer_1_SetPrescaler
 390              		.section	.text.Timer_1_SetOneShot,"ax",%progbits
 391              		.align	2
 392              		.global	Timer_1_SetOneShot
 393              		.code	16
 394              		.thumb_func
 395              		.type	Timer_1_SetOneShot, %function
 396              	Timer_1_SetOneShot:
 397              	.LFB7:
 374:Generated_Source\PSoC4/Timer_1.c **** 
 375:Generated_Source\PSoC4/Timer_1.c **** 
 376:Generated_Source\PSoC4/Timer_1.c **** /*******************************************************************************
 377:Generated_Source\PSoC4/Timer_1.c **** * Function Name: Timer_1_SetOneShot
 378:Generated_Source\PSoC4/Timer_1.c **** ********************************************************************************
 379:Generated_Source\PSoC4/Timer_1.c **** *
 380:Generated_Source\PSoC4/Timer_1.c **** * Summary:
 381:Generated_Source\PSoC4/Timer_1.c **** *  Writes the register that controls whether the Timer_1 runs
 382:Generated_Source\PSoC4/Timer_1.c **** *  continuously or stops when terminal count is reached.  By default the
 383:Generated_Source\PSoC4/Timer_1.c **** *  Timer_1 operates in the continuous mode.
 384:Generated_Source\PSoC4/Timer_1.c **** *
 385:Generated_Source\PSoC4/Timer_1.c **** * Parameters:
 386:Generated_Source\PSoC4/Timer_1.c **** *  oneShotEnable
 387:Generated_Source\PSoC4/Timer_1.c **** *   Values:
 388:Generated_Source\PSoC4/Timer_1.c **** *     - 0 - Continuous
 389:Generated_Source\PSoC4/Timer_1.c **** *     - 1 - Enable One Shot
 390:Generated_Source\PSoC4/Timer_1.c **** *
 391:Generated_Source\PSoC4/Timer_1.c **** * Return:
 392:Generated_Source\PSoC4/Timer_1.c **** *  None
 393:Generated_Source\PSoC4/Timer_1.c **** *
 394:Generated_Source\PSoC4/Timer_1.c **** *******************************************************************************/
 395:Generated_Source\PSoC4/Timer_1.c **** void Timer_1_SetOneShot(uint32 oneShotEnable)
 396:Generated_Source\PSoC4/Timer_1.c **** {
 398              		.loc 1 396 0
 399              		.cfi_startproc
 400 0000 90B5     		push	{r4, r7, lr}
 401              		.cfi_def_cfa_offset 12
 402              		.cfi_offset 4, -12
ARM GAS  C:\Users\SHAHIL~1\AppData\Local\Temp\ccJVPaxU.s 			page 15


 403              		.cfi_offset 7, -8
 404              		.cfi_offset 14, -4
 405 0002 85B0     		sub	sp, sp, #20
 406              		.cfi_def_cfa_offset 32
 407 0004 00AF     		add	r7, sp, #0
 408              		.cfi_def_cfa_register 7
 409 0006 7860     		str	r0, [r7, #4]
 397:Generated_Source\PSoC4/Timer_1.c ****     uint8 enableInterrupts;
 398:Generated_Source\PSoC4/Timer_1.c **** 
 399:Generated_Source\PSoC4/Timer_1.c ****     enableInterrupts = CyEnterCriticalSection();
 410              		.loc 1 399 0
 411 0008 0F23     		mov	r3, #15
 412 000a FC18     		add	r4, r7, r3
 413 000c FFF7FEFF 		bl	CyEnterCriticalSection
 414 0010 031C     		mov	r3, r0
 415 0012 2370     		strb	r3, [r4]
 400:Generated_Source\PSoC4/Timer_1.c **** 
 401:Generated_Source\PSoC4/Timer_1.c ****     Timer_1_CONTROL_REG &= (uint32)~Timer_1_ONESHOT_MASK;
 416              		.loc 1 401 0
 417 0014 0B4B     		ldr	r3, .L24
 418 0016 0B4A     		ldr	r2, .L24
 419 0018 1268     		ldr	r2, [r2]
 420 001a 0B49     		ldr	r1, .L24+4
 421 001c 0A40     		and	r2, r1
 422 001e 1A60     		str	r2, [r3]
 402:Generated_Source\PSoC4/Timer_1.c ****     Timer_1_CONTROL_REG |= ((uint32)((oneShotEnable & Timer_1_1BIT_MASK) <<
 423              		.loc 1 402 0
 424 0020 084B     		ldr	r3, .L24
 425 0022 084A     		ldr	r2, .L24
 426 0024 1168     		ldr	r1, [r2]
 427 0026 7A68     		ldr	r2, [r7, #4]
 428 0028 0120     		mov	r0, #1
 429 002a 0240     		and	r2, r0
 430 002c 9204     		lsl	r2, r2, #18
 431 002e 0A43     		orr	r2, r1
 432 0030 1A60     		str	r2, [r3]
 403:Generated_Source\PSoC4/Timer_1.c ****                                                                Timer_1_ONESHOT_SHIFT));
 404:Generated_Source\PSoC4/Timer_1.c **** 
 405:Generated_Source\PSoC4/Timer_1.c ****     CyExitCriticalSection(enableInterrupts);
 433              		.loc 1 405 0
 434 0032 0F23     		mov	r3, #15
 435 0034 FB18     		add	r3, r7, r3
 436 0036 1B78     		ldrb	r3, [r3]
 437 0038 181C     		mov	r0, r3
 438 003a FFF7FEFF 		bl	CyExitCriticalSection
 406:Generated_Source\PSoC4/Timer_1.c **** }
 439              		.loc 1 406 0
 440 003e BD46     		mov	sp, r7
 441 0040 05B0     		add	sp, sp, #20
 442              		@ sp needed
 443 0042 90BD     		pop	{r4, r7, pc}
 444              	.L25:
 445              		.align	2
 446              	.L24:
 447 0044 00010540 		.word	1074069760
 448 0048 FFFFFBFF 		.word	-262145
 449              		.cfi_endproc
ARM GAS  C:\Users\SHAHIL~1\AppData\Local\Temp\ccJVPaxU.s 			page 16


 450              	.LFE7:
 451              		.size	Timer_1_SetOneShot, .-Timer_1_SetOneShot
 452              		.section	.text.Timer_1_SetPWMMode,"ax",%progbits
 453              		.align	2
 454              		.global	Timer_1_SetPWMMode
 455              		.code	16
 456              		.thumb_func
 457              		.type	Timer_1_SetPWMMode, %function
 458              	Timer_1_SetPWMMode:
 459              	.LFB8:
 407:Generated_Source\PSoC4/Timer_1.c **** 
 408:Generated_Source\PSoC4/Timer_1.c **** 
 409:Generated_Source\PSoC4/Timer_1.c **** /*******************************************************************************
 410:Generated_Source\PSoC4/Timer_1.c **** * Function Name: Timer_1_SetPWMMode
 411:Generated_Source\PSoC4/Timer_1.c **** ********************************************************************************
 412:Generated_Source\PSoC4/Timer_1.c **** *
 413:Generated_Source\PSoC4/Timer_1.c **** * Summary:
 414:Generated_Source\PSoC4/Timer_1.c **** *  Writes the control register that determines what mode of operation the PWM
 415:Generated_Source\PSoC4/Timer_1.c **** *  output lines are driven in.  There is a setting for what to do on a
 416:Generated_Source\PSoC4/Timer_1.c **** *  comparison match (CC_MATCH), on an overflow (OVERFLOW) and on an underflow
 417:Generated_Source\PSoC4/Timer_1.c **** *  (UNDERFLOW).  The value for each of the three must be ORed together to form
 418:Generated_Source\PSoC4/Timer_1.c **** *  the mode.
 419:Generated_Source\PSoC4/Timer_1.c **** *
 420:Generated_Source\PSoC4/Timer_1.c **** * Parameters:
 421:Generated_Source\PSoC4/Timer_1.c **** *  modeMask: A combination of three mode settings.  Mask must include a value
 422:Generated_Source\PSoC4/Timer_1.c **** *  for each of the three or use one of the preconfigured PWM settings.
 423:Generated_Source\PSoC4/Timer_1.c **** *   Values:
 424:Generated_Source\PSoC4/Timer_1.c **** *     - CC_MATCH_SET        - Set on comparison match
 425:Generated_Source\PSoC4/Timer_1.c **** *     - CC_MATCH_CLEAR      - Clear on comparison match
 426:Generated_Source\PSoC4/Timer_1.c **** *     - CC_MATCH_INVERT     - Invert on comparison match
 427:Generated_Source\PSoC4/Timer_1.c **** *     - CC_MATCH_NO_CHANGE  - No change on comparison match
 428:Generated_Source\PSoC4/Timer_1.c **** *     - OVERLOW_SET         - Set on overflow
 429:Generated_Source\PSoC4/Timer_1.c **** *     - OVERLOW_CLEAR       - Clear on  overflow
 430:Generated_Source\PSoC4/Timer_1.c **** *     - OVERLOW_INVERT      - Invert on overflow
 431:Generated_Source\PSoC4/Timer_1.c **** *     - OVERLOW_NO_CHANGE   - No change on overflow
 432:Generated_Source\PSoC4/Timer_1.c **** *     - UNDERFLOW_SET       - Set on underflow
 433:Generated_Source\PSoC4/Timer_1.c **** *     - UNDERFLOW_CLEAR     - Clear on underflow
 434:Generated_Source\PSoC4/Timer_1.c **** *     - UNDERFLOW_INVERT    - Invert on underflow
 435:Generated_Source\PSoC4/Timer_1.c **** *     - UNDERFLOW_NO_CHANGE - No change on underflow
 436:Generated_Source\PSoC4/Timer_1.c **** *     - PWM_MODE_LEFT       - Setting for left aligned PWM.  Should be combined
 437:Generated_Source\PSoC4/Timer_1.c **** *                             with up counting mode
 438:Generated_Source\PSoC4/Timer_1.c **** *     - PWM_MODE_RIGHT      - Setting for right aligned PWM.  Should be combined
 439:Generated_Source\PSoC4/Timer_1.c **** *                             with down counting mode
 440:Generated_Source\PSoC4/Timer_1.c **** *     - PWM_MODE_CENTER     - Setting for center aligned PWM.  Should be
 441:Generated_Source\PSoC4/Timer_1.c **** *                             combined with up/down 0 mode
 442:Generated_Source\PSoC4/Timer_1.c **** *     - PWM_MODE_ASYM       - Setting for asymmetric PWM.  Should be combined
 443:Generated_Source\PSoC4/Timer_1.c **** *                             with up/down 1 mode
 444:Generated_Source\PSoC4/Timer_1.c **** *
 445:Generated_Source\PSoC4/Timer_1.c **** * Return:
 446:Generated_Source\PSoC4/Timer_1.c **** *  None
 447:Generated_Source\PSoC4/Timer_1.c **** *
 448:Generated_Source\PSoC4/Timer_1.c **** *******************************************************************************/
 449:Generated_Source\PSoC4/Timer_1.c **** void Timer_1_SetPWMMode(uint32 modeMask)
 450:Generated_Source\PSoC4/Timer_1.c **** {
 460              		.loc 1 450 0
 461              		.cfi_startproc
 462 0000 80B5     		push	{r7, lr}
ARM GAS  C:\Users\SHAHIL~1\AppData\Local\Temp\ccJVPaxU.s 			page 17


 463              		.cfi_def_cfa_offset 8
 464              		.cfi_offset 7, -8
 465              		.cfi_offset 14, -4
 466 0002 82B0     		sub	sp, sp, #8
 467              		.cfi_def_cfa_offset 16
 468 0004 00AF     		add	r7, sp, #0
 469              		.cfi_def_cfa_register 7
 470 0006 7860     		str	r0, [r7, #4]
 451:Generated_Source\PSoC4/Timer_1.c ****     Timer_1_TRIG_CONTROL2_REG = (modeMask & Timer_1_6BIT_MASK);
 471              		.loc 1 451 0
 472 0008 034B     		ldr	r3, .L27
 473 000a 7A68     		ldr	r2, [r7, #4]
 474 000c 3F21     		mov	r1, #63
 475 000e 0A40     		and	r2, r1
 476 0010 1A60     		str	r2, [r3]
 452:Generated_Source\PSoC4/Timer_1.c **** }
 477              		.loc 1 452 0
 478 0012 BD46     		mov	sp, r7
 479 0014 02B0     		add	sp, sp, #8
 480              		@ sp needed
 481 0016 80BD     		pop	{r7, pc}
 482              	.L28:
 483              		.align	2
 484              	.L27:
 485 0018 28010540 		.word	1074069800
 486              		.cfi_endproc
 487              	.LFE8:
 488              		.size	Timer_1_SetPWMMode, .-Timer_1_SetPWMMode
 489              		.section	.text.Timer_1_SetPWMSyncKill,"ax",%progbits
 490              		.align	2
 491              		.global	Timer_1_SetPWMSyncKill
 492              		.code	16
 493              		.thumb_func
 494              		.type	Timer_1_SetPWMSyncKill, %function
 495              	Timer_1_SetPWMSyncKill:
 496              	.LFB9:
 453:Generated_Source\PSoC4/Timer_1.c **** 
 454:Generated_Source\PSoC4/Timer_1.c **** 
 455:Generated_Source\PSoC4/Timer_1.c **** 
 456:Generated_Source\PSoC4/Timer_1.c **** /*******************************************************************************
 457:Generated_Source\PSoC4/Timer_1.c **** * Function Name: Timer_1_SetPWMSyncKill
 458:Generated_Source\PSoC4/Timer_1.c **** ********************************************************************************
 459:Generated_Source\PSoC4/Timer_1.c **** *
 460:Generated_Source\PSoC4/Timer_1.c **** * Summary:
 461:Generated_Source\PSoC4/Timer_1.c **** *  Writes the register that controls whether the PWM kill signal (stop input)
 462:Generated_Source\PSoC4/Timer_1.c **** *  causes asynchronous or synchronous kill operation.  By default the kill
 463:Generated_Source\PSoC4/Timer_1.c **** *  operation is asynchronous.  This functionality is only applicable to the PWM
 464:Generated_Source\PSoC4/Timer_1.c **** *  and PWM with dead time modes.
 465:Generated_Source\PSoC4/Timer_1.c **** *
 466:Generated_Source\PSoC4/Timer_1.c **** *  For Synchronous mode the kill signal disables both the line and line_n
 467:Generated_Source\PSoC4/Timer_1.c **** *  signals until the next terminal count.
 468:Generated_Source\PSoC4/Timer_1.c **** *
 469:Generated_Source\PSoC4/Timer_1.c **** *  For Asynchronous mode the kill signal disables both the line and line_n
 470:Generated_Source\PSoC4/Timer_1.c **** *  signals when the kill signal is present.  This mode should only be used
 471:Generated_Source\PSoC4/Timer_1.c **** *  when the kill signal (stop input) is configured in the pass through mode
 472:Generated_Source\PSoC4/Timer_1.c **** *  (Level sensitive signal).
 473:Generated_Source\PSoC4/Timer_1.c **** 
ARM GAS  C:\Users\SHAHIL~1\AppData\Local\Temp\ccJVPaxU.s 			page 18


 474:Generated_Source\PSoC4/Timer_1.c **** *
 475:Generated_Source\PSoC4/Timer_1.c **** * Parameters:
 476:Generated_Source\PSoC4/Timer_1.c **** *  syncKillEnable
 477:Generated_Source\PSoC4/Timer_1.c **** *   Values:
 478:Generated_Source\PSoC4/Timer_1.c **** *     - 0 - Asynchronous
 479:Generated_Source\PSoC4/Timer_1.c **** *     - 1 - Synchronous
 480:Generated_Source\PSoC4/Timer_1.c **** *
 481:Generated_Source\PSoC4/Timer_1.c **** * Return:
 482:Generated_Source\PSoC4/Timer_1.c **** *  None
 483:Generated_Source\PSoC4/Timer_1.c **** *
 484:Generated_Source\PSoC4/Timer_1.c **** *******************************************************************************/
 485:Generated_Source\PSoC4/Timer_1.c **** void Timer_1_SetPWMSyncKill(uint32 syncKillEnable)
 486:Generated_Source\PSoC4/Timer_1.c **** {
 497              		.loc 1 486 0
 498              		.cfi_startproc
 499 0000 90B5     		push	{r4, r7, lr}
 500              		.cfi_def_cfa_offset 12
 501              		.cfi_offset 4, -12
 502              		.cfi_offset 7, -8
 503              		.cfi_offset 14, -4
 504 0002 85B0     		sub	sp, sp, #20
 505              		.cfi_def_cfa_offset 32
 506 0004 00AF     		add	r7, sp, #0
 507              		.cfi_def_cfa_register 7
 508 0006 7860     		str	r0, [r7, #4]
 487:Generated_Source\PSoC4/Timer_1.c ****     uint8 enableInterrupts;
 488:Generated_Source\PSoC4/Timer_1.c **** 
 489:Generated_Source\PSoC4/Timer_1.c ****     enableInterrupts = CyEnterCriticalSection();
 509              		.loc 1 489 0
 510 0008 0F23     		mov	r3, #15
 511 000a FC18     		add	r4, r7, r3
 512 000c FFF7FEFF 		bl	CyEnterCriticalSection
 513 0010 031C     		mov	r3, r0
 514 0012 2370     		strb	r3, [r4]
 490:Generated_Source\PSoC4/Timer_1.c **** 
 491:Generated_Source\PSoC4/Timer_1.c ****     Timer_1_CONTROL_REG &= (uint32)~Timer_1_PWM_SYNC_KILL_MASK;
 515              		.loc 1 491 0
 516 0014 0B4B     		ldr	r3, .L30
 517 0016 0B4A     		ldr	r2, .L30
 518 0018 1268     		ldr	r2, [r2]
 519 001a 0421     		mov	r1, #4
 520 001c 8A43     		bic	r2, r1
 521 001e 1A60     		str	r2, [r3]
 492:Generated_Source\PSoC4/Timer_1.c ****     Timer_1_CONTROL_REG |= ((uint32)((syncKillEnable & Timer_1_1BIT_MASK)  <<
 522              		.loc 1 492 0
 523 0020 084B     		ldr	r3, .L30
 524 0022 084A     		ldr	r2, .L30
 525 0024 1168     		ldr	r1, [r2]
 526 0026 7A68     		ldr	r2, [r7, #4]
 527 0028 0120     		mov	r0, #1
 528 002a 0240     		and	r2, r0
 529 002c 9200     		lsl	r2, r2, #2
 530 002e 0A43     		orr	r2, r1
 531 0030 1A60     		str	r2, [r3]
 493:Generated_Source\PSoC4/Timer_1.c ****                                                Timer_1_PWM_SYNC_KILL_SHIFT));
 494:Generated_Source\PSoC4/Timer_1.c **** 
 495:Generated_Source\PSoC4/Timer_1.c ****     CyExitCriticalSection(enableInterrupts);
ARM GAS  C:\Users\SHAHIL~1\AppData\Local\Temp\ccJVPaxU.s 			page 19


 532              		.loc 1 495 0
 533 0032 0F23     		mov	r3, #15
 534 0034 FB18     		add	r3, r7, r3
 535 0036 1B78     		ldrb	r3, [r3]
 536 0038 181C     		mov	r0, r3
 537 003a FFF7FEFF 		bl	CyExitCriticalSection
 496:Generated_Source\PSoC4/Timer_1.c **** }
 538              		.loc 1 496 0
 539 003e BD46     		mov	sp, r7
 540 0040 05B0     		add	sp, sp, #20
 541              		@ sp needed
 542 0042 90BD     		pop	{r4, r7, pc}
 543              	.L31:
 544              		.align	2
 545              	.L30:
 546 0044 00010540 		.word	1074069760
 547              		.cfi_endproc
 548              	.LFE9:
 549              		.size	Timer_1_SetPWMSyncKill, .-Timer_1_SetPWMSyncKill
 550              		.section	.text.Timer_1_SetPWMStopOnKill,"ax",%progbits
 551              		.align	2
 552              		.global	Timer_1_SetPWMStopOnKill
 553              		.code	16
 554              		.thumb_func
 555              		.type	Timer_1_SetPWMStopOnKill, %function
 556              	Timer_1_SetPWMStopOnKill:
 557              	.LFB10:
 497:Generated_Source\PSoC4/Timer_1.c **** 
 498:Generated_Source\PSoC4/Timer_1.c **** 
 499:Generated_Source\PSoC4/Timer_1.c **** /*******************************************************************************
 500:Generated_Source\PSoC4/Timer_1.c **** * Function Name: Timer_1_SetPWMStopOnKill
 501:Generated_Source\PSoC4/Timer_1.c **** ********************************************************************************
 502:Generated_Source\PSoC4/Timer_1.c **** *
 503:Generated_Source\PSoC4/Timer_1.c **** * Summary:
 504:Generated_Source\PSoC4/Timer_1.c **** *  Writes the register that controls whether the PWM kill signal (stop input)
 505:Generated_Source\PSoC4/Timer_1.c **** *  causes the PWM counter to stop.  By default the kill operation does not stop
 506:Generated_Source\PSoC4/Timer_1.c **** *  the counter.  This functionality is only applicable to the three PWM modes.
 507:Generated_Source\PSoC4/Timer_1.c **** *
 508:Generated_Source\PSoC4/Timer_1.c **** *
 509:Generated_Source\PSoC4/Timer_1.c **** * Parameters:
 510:Generated_Source\PSoC4/Timer_1.c **** *  stopOnKillEnable
 511:Generated_Source\PSoC4/Timer_1.c **** *   Values:
 512:Generated_Source\PSoC4/Timer_1.c **** *     - 0 - Don't stop
 513:Generated_Source\PSoC4/Timer_1.c **** *     - 1 - Stop
 514:Generated_Source\PSoC4/Timer_1.c **** *
 515:Generated_Source\PSoC4/Timer_1.c **** * Return:
 516:Generated_Source\PSoC4/Timer_1.c **** *  None
 517:Generated_Source\PSoC4/Timer_1.c **** *
 518:Generated_Source\PSoC4/Timer_1.c **** *******************************************************************************/
 519:Generated_Source\PSoC4/Timer_1.c **** void Timer_1_SetPWMStopOnKill(uint32 stopOnKillEnable)
 520:Generated_Source\PSoC4/Timer_1.c **** {
 558              		.loc 1 520 0
 559              		.cfi_startproc
 560 0000 90B5     		push	{r4, r7, lr}
 561              		.cfi_def_cfa_offset 12
 562              		.cfi_offset 4, -12
 563              		.cfi_offset 7, -8
ARM GAS  C:\Users\SHAHIL~1\AppData\Local\Temp\ccJVPaxU.s 			page 20


 564              		.cfi_offset 14, -4
 565 0002 85B0     		sub	sp, sp, #20
 566              		.cfi_def_cfa_offset 32
 567 0004 00AF     		add	r7, sp, #0
 568              		.cfi_def_cfa_register 7
 569 0006 7860     		str	r0, [r7, #4]
 521:Generated_Source\PSoC4/Timer_1.c ****     uint8 enableInterrupts;
 522:Generated_Source\PSoC4/Timer_1.c **** 
 523:Generated_Source\PSoC4/Timer_1.c ****     enableInterrupts = CyEnterCriticalSection();
 570              		.loc 1 523 0
 571 0008 0F23     		mov	r3, #15
 572 000a FC18     		add	r4, r7, r3
 573 000c FFF7FEFF 		bl	CyEnterCriticalSection
 574 0010 031C     		mov	r3, r0
 575 0012 2370     		strb	r3, [r4]
 524:Generated_Source\PSoC4/Timer_1.c **** 
 525:Generated_Source\PSoC4/Timer_1.c ****     Timer_1_CONTROL_REG &= (uint32)~Timer_1_PWM_STOP_KILL_MASK;
 576              		.loc 1 525 0
 577 0014 0B4B     		ldr	r3, .L33
 578 0016 0B4A     		ldr	r2, .L33
 579 0018 1268     		ldr	r2, [r2]
 580 001a 0821     		mov	r1, #8
 581 001c 8A43     		bic	r2, r1
 582 001e 1A60     		str	r2, [r3]
 526:Generated_Source\PSoC4/Timer_1.c ****     Timer_1_CONTROL_REG |= ((uint32)((stopOnKillEnable & Timer_1_1BIT_MASK)  <<
 583              		.loc 1 526 0
 584 0020 084B     		ldr	r3, .L33
 585 0022 084A     		ldr	r2, .L33
 586 0024 1168     		ldr	r1, [r2]
 587 0026 7A68     		ldr	r2, [r7, #4]
 588 0028 0120     		mov	r0, #1
 589 002a 0240     		and	r2, r0
 590 002c D200     		lsl	r2, r2, #3
 591 002e 0A43     		orr	r2, r1
 592 0030 1A60     		str	r2, [r3]
 527:Generated_Source\PSoC4/Timer_1.c ****                                                          Timer_1_PWM_STOP_KILL_SHIFT));
 528:Generated_Source\PSoC4/Timer_1.c **** 
 529:Generated_Source\PSoC4/Timer_1.c ****     CyExitCriticalSection(enableInterrupts);
 593              		.loc 1 529 0
 594 0032 0F23     		mov	r3, #15
 595 0034 FB18     		add	r3, r7, r3
 596 0036 1B78     		ldrb	r3, [r3]
 597 0038 181C     		mov	r0, r3
 598 003a FFF7FEFF 		bl	CyExitCriticalSection
 530:Generated_Source\PSoC4/Timer_1.c **** }
 599              		.loc 1 530 0
 600 003e BD46     		mov	sp, r7
 601 0040 05B0     		add	sp, sp, #20
 602              		@ sp needed
 603 0042 90BD     		pop	{r4, r7, pc}
 604              	.L34:
 605              		.align	2
 606              	.L33:
 607 0044 00010540 		.word	1074069760
 608              		.cfi_endproc
 609              	.LFE10:
 610              		.size	Timer_1_SetPWMStopOnKill, .-Timer_1_SetPWMStopOnKill
ARM GAS  C:\Users\SHAHIL~1\AppData\Local\Temp\ccJVPaxU.s 			page 21


 611              		.section	.text.Timer_1_SetPWMDeadTime,"ax",%progbits
 612              		.align	2
 613              		.global	Timer_1_SetPWMDeadTime
 614              		.code	16
 615              		.thumb_func
 616              		.type	Timer_1_SetPWMDeadTime, %function
 617              	Timer_1_SetPWMDeadTime:
 618              	.LFB11:
 531:Generated_Source\PSoC4/Timer_1.c **** 
 532:Generated_Source\PSoC4/Timer_1.c **** 
 533:Generated_Source\PSoC4/Timer_1.c **** /*******************************************************************************
 534:Generated_Source\PSoC4/Timer_1.c **** * Function Name: Timer_1_SetPWMDeadTime
 535:Generated_Source\PSoC4/Timer_1.c **** ********************************************************************************
 536:Generated_Source\PSoC4/Timer_1.c **** *
 537:Generated_Source\PSoC4/Timer_1.c **** * Summary:
 538:Generated_Source\PSoC4/Timer_1.c **** *  Writes the dead time control value.  This value delays the rising edge of
 539:Generated_Source\PSoC4/Timer_1.c **** *  both the line and line_n signals the designated number of cycles resulting
 540:Generated_Source\PSoC4/Timer_1.c **** *  in both signals being inactive for that many cycles.  This functionality is
 541:Generated_Source\PSoC4/Timer_1.c **** *  only applicable to the PWM in the dead time mode.
 542:Generated_Source\PSoC4/Timer_1.c **** 
 543:Generated_Source\PSoC4/Timer_1.c **** *
 544:Generated_Source\PSoC4/Timer_1.c **** * Parameters:
 545:Generated_Source\PSoC4/Timer_1.c **** *  Dead time to insert
 546:Generated_Source\PSoC4/Timer_1.c **** *   Values: 0 to 255
 547:Generated_Source\PSoC4/Timer_1.c **** *
 548:Generated_Source\PSoC4/Timer_1.c **** * Return:
 549:Generated_Source\PSoC4/Timer_1.c **** *  None
 550:Generated_Source\PSoC4/Timer_1.c **** *
 551:Generated_Source\PSoC4/Timer_1.c **** *******************************************************************************/
 552:Generated_Source\PSoC4/Timer_1.c **** void Timer_1_SetPWMDeadTime(uint32 deadTime)
 553:Generated_Source\PSoC4/Timer_1.c **** {
 619              		.loc 1 553 0
 620              		.cfi_startproc
 621 0000 90B5     		push	{r4, r7, lr}
 622              		.cfi_def_cfa_offset 12
 623              		.cfi_offset 4, -12
 624              		.cfi_offset 7, -8
 625              		.cfi_offset 14, -4
 626 0002 85B0     		sub	sp, sp, #20
 627              		.cfi_def_cfa_offset 32
 628 0004 00AF     		add	r7, sp, #0
 629              		.cfi_def_cfa_register 7
 630 0006 7860     		str	r0, [r7, #4]
 554:Generated_Source\PSoC4/Timer_1.c ****     uint8 enableInterrupts;
 555:Generated_Source\PSoC4/Timer_1.c **** 
 556:Generated_Source\PSoC4/Timer_1.c ****     enableInterrupts = CyEnterCriticalSection();
 631              		.loc 1 556 0
 632 0008 0F23     		mov	r3, #15
 633 000a FC18     		add	r4, r7, r3
 634 000c FFF7FEFF 		bl	CyEnterCriticalSection
 635 0010 031C     		mov	r3, r0
 636 0012 2370     		strb	r3, [r4]
 557:Generated_Source\PSoC4/Timer_1.c **** 
 558:Generated_Source\PSoC4/Timer_1.c ****     Timer_1_CONTROL_REG &= (uint32)~Timer_1_PRESCALER_MASK;
 637              		.loc 1 558 0
 638 0014 0B4B     		ldr	r3, .L36
 639 0016 0B4A     		ldr	r2, .L36
ARM GAS  C:\Users\SHAHIL~1\AppData\Local\Temp\ccJVPaxU.s 			page 22


 640 0018 1268     		ldr	r2, [r2]
 641 001a 0B49     		ldr	r1, .L36+4
 642 001c 0A40     		and	r2, r1
 643 001e 1A60     		str	r2, [r3]
 559:Generated_Source\PSoC4/Timer_1.c ****     Timer_1_CONTROL_REG |= ((uint32)((deadTime & Timer_1_8BIT_MASK) <<
 644              		.loc 1 559 0
 645 0020 084B     		ldr	r3, .L36
 646 0022 084A     		ldr	r2, .L36
 647 0024 1168     		ldr	r1, [r2]
 648 0026 7A68     		ldr	r2, [r7, #4]
 649 0028 1202     		lsl	r2, r2, #8
 650 002a 1204     		lsl	r2, r2, #16
 651 002c 120C     		lsr	r2, r2, #16
 652 002e 0A43     		orr	r2, r1
 653 0030 1A60     		str	r2, [r3]
 560:Generated_Source\PSoC4/Timer_1.c ****                                                           Timer_1_PRESCALER_SHIFT));
 561:Generated_Source\PSoC4/Timer_1.c **** 
 562:Generated_Source\PSoC4/Timer_1.c ****     CyExitCriticalSection(enableInterrupts);
 654              		.loc 1 562 0
 655 0032 0F23     		mov	r3, #15
 656 0034 FB18     		add	r3, r7, r3
 657 0036 1B78     		ldrb	r3, [r3]
 658 0038 181C     		mov	r0, r3
 659 003a FFF7FEFF 		bl	CyExitCriticalSection
 563:Generated_Source\PSoC4/Timer_1.c **** }
 660              		.loc 1 563 0
 661 003e BD46     		mov	sp, r7
 662 0040 05B0     		add	sp, sp, #20
 663              		@ sp needed
 664 0042 90BD     		pop	{r4, r7, pc}
 665              	.L37:
 666              		.align	2
 667              	.L36:
 668 0044 00010540 		.word	1074069760
 669 0048 FF00FFFF 		.word	-65281
 670              		.cfi_endproc
 671              	.LFE11:
 672              		.size	Timer_1_SetPWMDeadTime, .-Timer_1_SetPWMDeadTime
 673              		.section	.text.Timer_1_SetPWMInvert,"ax",%progbits
 674              		.align	2
 675              		.global	Timer_1_SetPWMInvert
 676              		.code	16
 677              		.thumb_func
 678              		.type	Timer_1_SetPWMInvert, %function
 679              	Timer_1_SetPWMInvert:
 680              	.LFB12:
 564:Generated_Source\PSoC4/Timer_1.c **** 
 565:Generated_Source\PSoC4/Timer_1.c **** 
 566:Generated_Source\PSoC4/Timer_1.c **** /*******************************************************************************
 567:Generated_Source\PSoC4/Timer_1.c **** * Function Name: Timer_1_SetPWMInvert
 568:Generated_Source\PSoC4/Timer_1.c **** ********************************************************************************
 569:Generated_Source\PSoC4/Timer_1.c **** *
 570:Generated_Source\PSoC4/Timer_1.c **** * Summary:
 571:Generated_Source\PSoC4/Timer_1.c **** *  Writes the bits that control whether the line and line_n outputs are
 572:Generated_Source\PSoC4/Timer_1.c **** *  inverted from their normal output values.  This functionality is only
 573:Generated_Source\PSoC4/Timer_1.c **** *  applicable to the three PWM modes.
 574:Generated_Source\PSoC4/Timer_1.c **** *
ARM GAS  C:\Users\SHAHIL~1\AppData\Local\Temp\ccJVPaxU.s 			page 23


 575:Generated_Source\PSoC4/Timer_1.c **** * Parameters:
 576:Generated_Source\PSoC4/Timer_1.c **** *  mask: Mask of outputs to invert.
 577:Generated_Source\PSoC4/Timer_1.c **** *   Values:
 578:Generated_Source\PSoC4/Timer_1.c **** *         - Timer_1_INVERT_LINE   - Inverts the line output
 579:Generated_Source\PSoC4/Timer_1.c **** *         - Timer_1_INVERT_LINE_N - Inverts the line_n output
 580:Generated_Source\PSoC4/Timer_1.c **** *
 581:Generated_Source\PSoC4/Timer_1.c **** * Return:
 582:Generated_Source\PSoC4/Timer_1.c **** *  None
 583:Generated_Source\PSoC4/Timer_1.c **** *
 584:Generated_Source\PSoC4/Timer_1.c **** *******************************************************************************/
 585:Generated_Source\PSoC4/Timer_1.c **** void Timer_1_SetPWMInvert(uint32 mask)
 586:Generated_Source\PSoC4/Timer_1.c **** {
 681              		.loc 1 586 0
 682              		.cfi_startproc
 683 0000 90B5     		push	{r4, r7, lr}
 684              		.cfi_def_cfa_offset 12
 685              		.cfi_offset 4, -12
 686              		.cfi_offset 7, -8
 687              		.cfi_offset 14, -4
 688 0002 85B0     		sub	sp, sp, #20
 689              		.cfi_def_cfa_offset 32
 690 0004 00AF     		add	r7, sp, #0
 691              		.cfi_def_cfa_register 7
 692 0006 7860     		str	r0, [r7, #4]
 587:Generated_Source\PSoC4/Timer_1.c ****     uint8 enableInterrupts;
 588:Generated_Source\PSoC4/Timer_1.c **** 
 589:Generated_Source\PSoC4/Timer_1.c ****     enableInterrupts = CyEnterCriticalSection();
 693              		.loc 1 589 0
 694 0008 0F23     		mov	r3, #15
 695 000a FC18     		add	r4, r7, r3
 696 000c FFF7FEFF 		bl	CyEnterCriticalSection
 697 0010 031C     		mov	r3, r0
 698 0012 2370     		strb	r3, [r4]
 590:Generated_Source\PSoC4/Timer_1.c **** 
 591:Generated_Source\PSoC4/Timer_1.c ****     Timer_1_CONTROL_REG &= (uint32)~Timer_1_INV_OUT_MASK;
 699              		.loc 1 591 0
 700 0014 0A4B     		ldr	r3, .L39
 701 0016 0A4A     		ldr	r2, .L39
 702 0018 1268     		ldr	r2, [r2]
 703 001a 0A49     		ldr	r1, .L39+4
 704 001c 0A40     		and	r2, r1
 705 001e 1A60     		str	r2, [r3]
 592:Generated_Source\PSoC4/Timer_1.c ****     Timer_1_CONTROL_REG |= mask;
 706              		.loc 1 592 0
 707 0020 074B     		ldr	r3, .L39
 708 0022 074A     		ldr	r2, .L39
 709 0024 1168     		ldr	r1, [r2]
 710 0026 7A68     		ldr	r2, [r7, #4]
 711 0028 0A43     		orr	r2, r1
 712 002a 1A60     		str	r2, [r3]
 593:Generated_Source\PSoC4/Timer_1.c **** 
 594:Generated_Source\PSoC4/Timer_1.c ****     CyExitCriticalSection(enableInterrupts);
 713              		.loc 1 594 0
 714 002c 0F23     		mov	r3, #15
 715 002e FB18     		add	r3, r7, r3
 716 0030 1B78     		ldrb	r3, [r3]
 717 0032 181C     		mov	r0, r3
ARM GAS  C:\Users\SHAHIL~1\AppData\Local\Temp\ccJVPaxU.s 			page 24


 718 0034 FFF7FEFF 		bl	CyExitCriticalSection
 595:Generated_Source\PSoC4/Timer_1.c **** }
 719              		.loc 1 595 0
 720 0038 BD46     		mov	sp, r7
 721 003a 05B0     		add	sp, sp, #20
 722              		@ sp needed
 723 003c 90BD     		pop	{r4, r7, pc}
 724              	.L40:
 725 003e C046     		.align	2
 726              	.L39:
 727 0040 00010540 		.word	1074069760
 728 0044 FFFFCFFF 		.word	-3145729
 729              		.cfi_endproc
 730              	.LFE12:
 731              		.size	Timer_1_SetPWMInvert, .-Timer_1_SetPWMInvert
 732              		.section	.text.Timer_1_WriteCounter,"ax",%progbits
 733              		.align	2
 734              		.global	Timer_1_WriteCounter
 735              		.code	16
 736              		.thumb_func
 737              		.type	Timer_1_WriteCounter, %function
 738              	Timer_1_WriteCounter:
 739              	.LFB13:
 596:Generated_Source\PSoC4/Timer_1.c **** 
 597:Generated_Source\PSoC4/Timer_1.c **** 
 598:Generated_Source\PSoC4/Timer_1.c **** 
 599:Generated_Source\PSoC4/Timer_1.c **** /*******************************************************************************
 600:Generated_Source\PSoC4/Timer_1.c **** * Function Name: Timer_1_WriteCounter
 601:Generated_Source\PSoC4/Timer_1.c **** ********************************************************************************
 602:Generated_Source\PSoC4/Timer_1.c **** *
 603:Generated_Source\PSoC4/Timer_1.c **** * Summary:
 604:Generated_Source\PSoC4/Timer_1.c **** *  Writes a new 16bit counter value directly into the counter register, thus
 605:Generated_Source\PSoC4/Timer_1.c **** *  setting the counter (not the period) to the value written. It is not
 606:Generated_Source\PSoC4/Timer_1.c **** *  advised to write to this field when the counter is running.
 607:Generated_Source\PSoC4/Timer_1.c **** *
 608:Generated_Source\PSoC4/Timer_1.c **** * Parameters:
 609:Generated_Source\PSoC4/Timer_1.c **** *  count: value to write
 610:Generated_Source\PSoC4/Timer_1.c **** *
 611:Generated_Source\PSoC4/Timer_1.c **** * Return:
 612:Generated_Source\PSoC4/Timer_1.c **** *  None
 613:Generated_Source\PSoC4/Timer_1.c **** *
 614:Generated_Source\PSoC4/Timer_1.c **** *******************************************************************************/
 615:Generated_Source\PSoC4/Timer_1.c **** void Timer_1_WriteCounter(uint32 count)
 616:Generated_Source\PSoC4/Timer_1.c **** {
 740              		.loc 1 616 0
 741              		.cfi_startproc
 742 0000 80B5     		push	{r7, lr}
 743              		.cfi_def_cfa_offset 8
 744              		.cfi_offset 7, -8
 745              		.cfi_offset 14, -4
 746 0002 82B0     		sub	sp, sp, #8
 747              		.cfi_def_cfa_offset 16
 748 0004 00AF     		add	r7, sp, #0
 749              		.cfi_def_cfa_register 7
 750 0006 7860     		str	r0, [r7, #4]
 617:Generated_Source\PSoC4/Timer_1.c ****     Timer_1_COUNTER_REG = (count & Timer_1_16BIT_MASK);
 751              		.loc 1 617 0
ARM GAS  C:\Users\SHAHIL~1\AppData\Local\Temp\ccJVPaxU.s 			page 25


 752 0008 034B     		ldr	r3, .L42
 753 000a 7A68     		ldr	r2, [r7, #4]
 754 000c 1204     		lsl	r2, r2, #16
 755 000e 120C     		lsr	r2, r2, #16
 756 0010 1A60     		str	r2, [r3]
 618:Generated_Source\PSoC4/Timer_1.c **** }
 757              		.loc 1 618 0
 758 0012 BD46     		mov	sp, r7
 759 0014 02B0     		add	sp, sp, #8
 760              		@ sp needed
 761 0016 80BD     		pop	{r7, pc}
 762              	.L43:
 763              		.align	2
 764              	.L42:
 765 0018 08010540 		.word	1074069768
 766              		.cfi_endproc
 767              	.LFE13:
 768              		.size	Timer_1_WriteCounter, .-Timer_1_WriteCounter
 769              		.section	.text.Timer_1_ReadCounter,"ax",%progbits
 770              		.align	2
 771              		.global	Timer_1_ReadCounter
 772              		.code	16
 773              		.thumb_func
 774              		.type	Timer_1_ReadCounter, %function
 775              	Timer_1_ReadCounter:
 776              	.LFB14:
 619:Generated_Source\PSoC4/Timer_1.c **** 
 620:Generated_Source\PSoC4/Timer_1.c **** 
 621:Generated_Source\PSoC4/Timer_1.c **** /*******************************************************************************
 622:Generated_Source\PSoC4/Timer_1.c **** * Function Name: Timer_1_ReadCounter
 623:Generated_Source\PSoC4/Timer_1.c **** ********************************************************************************
 624:Generated_Source\PSoC4/Timer_1.c **** *
 625:Generated_Source\PSoC4/Timer_1.c **** * Summary:
 626:Generated_Source\PSoC4/Timer_1.c **** *  Reads the current counter value.
 627:Generated_Source\PSoC4/Timer_1.c **** *
 628:Generated_Source\PSoC4/Timer_1.c **** * Parameters:
 629:Generated_Source\PSoC4/Timer_1.c **** *  None
 630:Generated_Source\PSoC4/Timer_1.c **** *
 631:Generated_Source\PSoC4/Timer_1.c **** * Return:
 632:Generated_Source\PSoC4/Timer_1.c **** *  Current counter value
 633:Generated_Source\PSoC4/Timer_1.c **** *
 634:Generated_Source\PSoC4/Timer_1.c **** *******************************************************************************/
 635:Generated_Source\PSoC4/Timer_1.c **** uint32 Timer_1_ReadCounter(void)
 636:Generated_Source\PSoC4/Timer_1.c **** {
 777              		.loc 1 636 0
 778              		.cfi_startproc
 779 0000 80B5     		push	{r7, lr}
 780              		.cfi_def_cfa_offset 8
 781              		.cfi_offset 7, -8
 782              		.cfi_offset 14, -4
 783 0002 00AF     		add	r7, sp, #0
 784              		.cfi_def_cfa_register 7
 637:Generated_Source\PSoC4/Timer_1.c ****     return (Timer_1_COUNTER_REG & Timer_1_16BIT_MASK);
 785              		.loc 1 637 0
 786 0004 034B     		ldr	r3, .L46
 787 0006 1B68     		ldr	r3, [r3]
 788 0008 1B04     		lsl	r3, r3, #16
ARM GAS  C:\Users\SHAHIL~1\AppData\Local\Temp\ccJVPaxU.s 			page 26


 789 000a 1B0C     		lsr	r3, r3, #16
 638:Generated_Source\PSoC4/Timer_1.c **** }
 790              		.loc 1 638 0
 791 000c 181C     		mov	r0, r3
 792 000e BD46     		mov	sp, r7
 793              		@ sp needed
 794 0010 80BD     		pop	{r7, pc}
 795              	.L47:
 796 0012 C046     		.align	2
 797              	.L46:
 798 0014 08010540 		.word	1074069768
 799              		.cfi_endproc
 800              	.LFE14:
 801              		.size	Timer_1_ReadCounter, .-Timer_1_ReadCounter
 802              		.section	.text.Timer_1_SetCounterMode,"ax",%progbits
 803              		.align	2
 804              		.global	Timer_1_SetCounterMode
 805              		.code	16
 806              		.thumb_func
 807              		.type	Timer_1_SetCounterMode, %function
 808              	Timer_1_SetCounterMode:
 809              	.LFB15:
 639:Generated_Source\PSoC4/Timer_1.c **** 
 640:Generated_Source\PSoC4/Timer_1.c **** 
 641:Generated_Source\PSoC4/Timer_1.c **** /*******************************************************************************
 642:Generated_Source\PSoC4/Timer_1.c **** * Function Name: Timer_1_SetCounterMode
 643:Generated_Source\PSoC4/Timer_1.c **** ********************************************************************************
 644:Generated_Source\PSoC4/Timer_1.c **** *
 645:Generated_Source\PSoC4/Timer_1.c **** * Summary:
 646:Generated_Source\PSoC4/Timer_1.c **** *  Sets the counter mode.  Applicable to all modes except Quadrature Decoder
 647:Generated_Source\PSoC4/Timer_1.c **** *  and the PWM with a pseudo random output.
 648:Generated_Source\PSoC4/Timer_1.c **** *
 649:Generated_Source\PSoC4/Timer_1.c **** * Parameters:
 650:Generated_Source\PSoC4/Timer_1.c **** *  counterMode: Enumerated counter type values
 651:Generated_Source\PSoC4/Timer_1.c **** *   Values:
 652:Generated_Source\PSoC4/Timer_1.c **** *     - Timer_1_COUNT_UP       - Counts up
 653:Generated_Source\PSoC4/Timer_1.c **** *     - Timer_1_COUNT_DOWN     - Counts down
 654:Generated_Source\PSoC4/Timer_1.c **** *     - Timer_1_COUNT_UPDOWN0  - Counts up and down. Terminal count
 655:Generated_Source\PSoC4/Timer_1.c **** *                                         generated when counter reaches 0
 656:Generated_Source\PSoC4/Timer_1.c **** *     - Timer_1_COUNT_UPDOWN1  - Counts up and down. Terminal count
 657:Generated_Source\PSoC4/Timer_1.c **** *                                         generated both when counter reaches 0
 658:Generated_Source\PSoC4/Timer_1.c **** *                                         and period
 659:Generated_Source\PSoC4/Timer_1.c **** *
 660:Generated_Source\PSoC4/Timer_1.c **** * Return:
 661:Generated_Source\PSoC4/Timer_1.c **** *  None
 662:Generated_Source\PSoC4/Timer_1.c **** *
 663:Generated_Source\PSoC4/Timer_1.c **** *******************************************************************************/
 664:Generated_Source\PSoC4/Timer_1.c **** void Timer_1_SetCounterMode(uint32 counterMode)
 665:Generated_Source\PSoC4/Timer_1.c **** {
 810              		.loc 1 665 0
 811              		.cfi_startproc
 812 0000 90B5     		push	{r4, r7, lr}
 813              		.cfi_def_cfa_offset 12
 814              		.cfi_offset 4, -12
 815              		.cfi_offset 7, -8
 816              		.cfi_offset 14, -4
 817 0002 85B0     		sub	sp, sp, #20
ARM GAS  C:\Users\SHAHIL~1\AppData\Local\Temp\ccJVPaxU.s 			page 27


 818              		.cfi_def_cfa_offset 32
 819 0004 00AF     		add	r7, sp, #0
 820              		.cfi_def_cfa_register 7
 821 0006 7860     		str	r0, [r7, #4]
 666:Generated_Source\PSoC4/Timer_1.c ****     uint8 enableInterrupts;
 667:Generated_Source\PSoC4/Timer_1.c **** 
 668:Generated_Source\PSoC4/Timer_1.c ****     enableInterrupts = CyEnterCriticalSection();
 822              		.loc 1 668 0
 823 0008 0F23     		mov	r3, #15
 824 000a FC18     		add	r4, r7, r3
 825 000c FFF7FEFF 		bl	CyEnterCriticalSection
 826 0010 031C     		mov	r3, r0
 827 0012 2370     		strb	r3, [r4]
 669:Generated_Source\PSoC4/Timer_1.c **** 
 670:Generated_Source\PSoC4/Timer_1.c ****     Timer_1_CONTROL_REG &= (uint32)~Timer_1_UPDOWN_MASK;
 828              		.loc 1 670 0
 829 0014 0A4B     		ldr	r3, .L49
 830 0016 0A4A     		ldr	r2, .L49
 831 0018 1268     		ldr	r2, [r2]
 832 001a 0A49     		ldr	r1, .L49+4
 833 001c 0A40     		and	r2, r1
 834 001e 1A60     		str	r2, [r3]
 671:Generated_Source\PSoC4/Timer_1.c ****     Timer_1_CONTROL_REG |= counterMode;
 835              		.loc 1 671 0
 836 0020 074B     		ldr	r3, .L49
 837 0022 074A     		ldr	r2, .L49
 838 0024 1168     		ldr	r1, [r2]
 839 0026 7A68     		ldr	r2, [r7, #4]
 840 0028 0A43     		orr	r2, r1
 841 002a 1A60     		str	r2, [r3]
 672:Generated_Source\PSoC4/Timer_1.c **** 
 673:Generated_Source\PSoC4/Timer_1.c ****     CyExitCriticalSection(enableInterrupts);
 842              		.loc 1 673 0
 843 002c 0F23     		mov	r3, #15
 844 002e FB18     		add	r3, r7, r3
 845 0030 1B78     		ldrb	r3, [r3]
 846 0032 181C     		mov	r0, r3
 847 0034 FFF7FEFF 		bl	CyExitCriticalSection
 674:Generated_Source\PSoC4/Timer_1.c **** }
 848              		.loc 1 674 0
 849 0038 BD46     		mov	sp, r7
 850 003a 05B0     		add	sp, sp, #20
 851              		@ sp needed
 852 003c 90BD     		pop	{r4, r7, pc}
 853              	.L50:
 854 003e C046     		.align	2
 855              	.L49:
 856 0040 00010540 		.word	1074069760
 857 0044 FFFFFCFF 		.word	-196609
 858              		.cfi_endproc
 859              	.LFE15:
 860              		.size	Timer_1_SetCounterMode, .-Timer_1_SetCounterMode
 861              		.section	.text.Timer_1_WritePeriod,"ax",%progbits
 862              		.align	2
 863              		.global	Timer_1_WritePeriod
 864              		.code	16
 865              		.thumb_func
ARM GAS  C:\Users\SHAHIL~1\AppData\Local\Temp\ccJVPaxU.s 			page 28


 866              		.type	Timer_1_WritePeriod, %function
 867              	Timer_1_WritePeriod:
 868              	.LFB16:
 675:Generated_Source\PSoC4/Timer_1.c **** 
 676:Generated_Source\PSoC4/Timer_1.c **** 
 677:Generated_Source\PSoC4/Timer_1.c **** /*******************************************************************************
 678:Generated_Source\PSoC4/Timer_1.c **** * Function Name: Timer_1_WritePeriod
 679:Generated_Source\PSoC4/Timer_1.c **** ********************************************************************************
 680:Generated_Source\PSoC4/Timer_1.c **** *
 681:Generated_Source\PSoC4/Timer_1.c **** * Summary:
 682:Generated_Source\PSoC4/Timer_1.c **** *  Writes the 16 bit period register with the new period value.
 683:Generated_Source\PSoC4/Timer_1.c **** *  To cause the counter to count for N cycles this register should be written
 684:Generated_Source\PSoC4/Timer_1.c **** *  with N-1 (counts from 0 to period inclusive).
 685:Generated_Source\PSoC4/Timer_1.c **** *
 686:Generated_Source\PSoC4/Timer_1.c **** * Parameters:
 687:Generated_Source\PSoC4/Timer_1.c **** *  period: Period value
 688:Generated_Source\PSoC4/Timer_1.c **** *
 689:Generated_Source\PSoC4/Timer_1.c **** * Return:
 690:Generated_Source\PSoC4/Timer_1.c **** *  None
 691:Generated_Source\PSoC4/Timer_1.c **** *
 692:Generated_Source\PSoC4/Timer_1.c **** *******************************************************************************/
 693:Generated_Source\PSoC4/Timer_1.c **** void Timer_1_WritePeriod(uint32 period)
 694:Generated_Source\PSoC4/Timer_1.c **** {
 869              		.loc 1 694 0
 870              		.cfi_startproc
 871 0000 80B5     		push	{r7, lr}
 872              		.cfi_def_cfa_offset 8
 873              		.cfi_offset 7, -8
 874              		.cfi_offset 14, -4
 875 0002 82B0     		sub	sp, sp, #8
 876              		.cfi_def_cfa_offset 16
 877 0004 00AF     		add	r7, sp, #0
 878              		.cfi_def_cfa_register 7
 879 0006 7860     		str	r0, [r7, #4]
 695:Generated_Source\PSoC4/Timer_1.c ****     Timer_1_PERIOD_REG = (period & Timer_1_16BIT_MASK);
 880              		.loc 1 695 0
 881 0008 034B     		ldr	r3, .L52
 882 000a 7A68     		ldr	r2, [r7, #4]
 883 000c 1204     		lsl	r2, r2, #16
 884 000e 120C     		lsr	r2, r2, #16
 885 0010 1A60     		str	r2, [r3]
 696:Generated_Source\PSoC4/Timer_1.c **** }
 886              		.loc 1 696 0
 887 0012 BD46     		mov	sp, r7
 888 0014 02B0     		add	sp, sp, #8
 889              		@ sp needed
 890 0016 80BD     		pop	{r7, pc}
 891              	.L53:
 892              		.align	2
 893              	.L52:
 894 0018 14010540 		.word	1074069780
 895              		.cfi_endproc
 896              	.LFE16:
 897              		.size	Timer_1_WritePeriod, .-Timer_1_WritePeriod
 898              		.section	.text.Timer_1_ReadPeriod,"ax",%progbits
 899              		.align	2
 900              		.global	Timer_1_ReadPeriod
ARM GAS  C:\Users\SHAHIL~1\AppData\Local\Temp\ccJVPaxU.s 			page 29


 901              		.code	16
 902              		.thumb_func
 903              		.type	Timer_1_ReadPeriod, %function
 904              	Timer_1_ReadPeriod:
 905              	.LFB17:
 697:Generated_Source\PSoC4/Timer_1.c **** 
 698:Generated_Source\PSoC4/Timer_1.c **** 
 699:Generated_Source\PSoC4/Timer_1.c **** /*******************************************************************************
 700:Generated_Source\PSoC4/Timer_1.c **** * Function Name: Timer_1_ReadPeriod
 701:Generated_Source\PSoC4/Timer_1.c **** ********************************************************************************
 702:Generated_Source\PSoC4/Timer_1.c **** *
 703:Generated_Source\PSoC4/Timer_1.c **** * Summary:
 704:Generated_Source\PSoC4/Timer_1.c **** *  Reads the 16 bit period register.
 705:Generated_Source\PSoC4/Timer_1.c **** *
 706:Generated_Source\PSoC4/Timer_1.c **** * Parameters:
 707:Generated_Source\PSoC4/Timer_1.c **** *  None
 708:Generated_Source\PSoC4/Timer_1.c **** *
 709:Generated_Source\PSoC4/Timer_1.c **** * Return:
 710:Generated_Source\PSoC4/Timer_1.c **** *  Period value
 711:Generated_Source\PSoC4/Timer_1.c **** *
 712:Generated_Source\PSoC4/Timer_1.c **** *******************************************************************************/
 713:Generated_Source\PSoC4/Timer_1.c **** uint32 Timer_1_ReadPeriod(void)
 714:Generated_Source\PSoC4/Timer_1.c **** {
 906              		.loc 1 714 0
 907              		.cfi_startproc
 908 0000 80B5     		push	{r7, lr}
 909              		.cfi_def_cfa_offset 8
 910              		.cfi_offset 7, -8
 911              		.cfi_offset 14, -4
 912 0002 00AF     		add	r7, sp, #0
 913              		.cfi_def_cfa_register 7
 715:Generated_Source\PSoC4/Timer_1.c ****     return (Timer_1_PERIOD_REG & Timer_1_16BIT_MASK);
 914              		.loc 1 715 0
 915 0004 034B     		ldr	r3, .L56
 916 0006 1B68     		ldr	r3, [r3]
 917 0008 1B04     		lsl	r3, r3, #16
 918 000a 1B0C     		lsr	r3, r3, #16
 716:Generated_Source\PSoC4/Timer_1.c **** }
 919              		.loc 1 716 0
 920 000c 181C     		mov	r0, r3
 921 000e BD46     		mov	sp, r7
 922              		@ sp needed
 923 0010 80BD     		pop	{r7, pc}
 924              	.L57:
 925 0012 C046     		.align	2
 926              	.L56:
 927 0014 14010540 		.word	1074069780
 928              		.cfi_endproc
 929              	.LFE17:
 930              		.size	Timer_1_ReadPeriod, .-Timer_1_ReadPeriod
 931              		.section	.text.Timer_1_SetCompareSwap,"ax",%progbits
 932              		.align	2
 933              		.global	Timer_1_SetCompareSwap
 934              		.code	16
 935              		.thumb_func
 936              		.type	Timer_1_SetCompareSwap, %function
 937              	Timer_1_SetCompareSwap:
ARM GAS  C:\Users\SHAHIL~1\AppData\Local\Temp\ccJVPaxU.s 			page 30


 938              	.LFB18:
 717:Generated_Source\PSoC4/Timer_1.c **** 
 718:Generated_Source\PSoC4/Timer_1.c **** 
 719:Generated_Source\PSoC4/Timer_1.c **** /*******************************************************************************
 720:Generated_Source\PSoC4/Timer_1.c **** * Function Name: Timer_1_SetCompareSwap
 721:Generated_Source\PSoC4/Timer_1.c **** ********************************************************************************
 722:Generated_Source\PSoC4/Timer_1.c **** *
 723:Generated_Source\PSoC4/Timer_1.c **** * Summary:
 724:Generated_Source\PSoC4/Timer_1.c **** *  Writes the register that controls whether the compare registers are
 725:Generated_Source\PSoC4/Timer_1.c **** *  swapped. When enabled in the Timer/Counter mode(without capture) the swap
 726:Generated_Source\PSoC4/Timer_1.c **** *  occurs at a TC event. In the PWM mode the swap occurs at the next TC event
 727:Generated_Source\PSoC4/Timer_1.c **** *  following a hardware switch event.
 728:Generated_Source\PSoC4/Timer_1.c **** *
 729:Generated_Source\PSoC4/Timer_1.c **** * Parameters:
 730:Generated_Source\PSoC4/Timer_1.c **** *  swapEnable
 731:Generated_Source\PSoC4/Timer_1.c **** *   Values:
 732:Generated_Source\PSoC4/Timer_1.c **** *     - 0 - Disable swap
 733:Generated_Source\PSoC4/Timer_1.c **** *     - 1 - Enable swap
 734:Generated_Source\PSoC4/Timer_1.c **** *
 735:Generated_Source\PSoC4/Timer_1.c **** * Return:
 736:Generated_Source\PSoC4/Timer_1.c **** *  None
 737:Generated_Source\PSoC4/Timer_1.c **** *
 738:Generated_Source\PSoC4/Timer_1.c **** *******************************************************************************/
 739:Generated_Source\PSoC4/Timer_1.c **** void Timer_1_SetCompareSwap(uint32 swapEnable)
 740:Generated_Source\PSoC4/Timer_1.c **** {
 939              		.loc 1 740 0
 940              		.cfi_startproc
 941 0000 90B5     		push	{r4, r7, lr}
 942              		.cfi_def_cfa_offset 12
 943              		.cfi_offset 4, -12
 944              		.cfi_offset 7, -8
 945              		.cfi_offset 14, -4
 946 0002 85B0     		sub	sp, sp, #20
 947              		.cfi_def_cfa_offset 32
 948 0004 00AF     		add	r7, sp, #0
 949              		.cfi_def_cfa_register 7
 950 0006 7860     		str	r0, [r7, #4]
 741:Generated_Source\PSoC4/Timer_1.c ****     uint8 enableInterrupts;
 742:Generated_Source\PSoC4/Timer_1.c **** 
 743:Generated_Source\PSoC4/Timer_1.c ****     enableInterrupts = CyEnterCriticalSection();
 951              		.loc 1 743 0
 952 0008 0F23     		mov	r3, #15
 953 000a FC18     		add	r4, r7, r3
 954 000c FFF7FEFF 		bl	CyEnterCriticalSection
 955 0010 031C     		mov	r3, r0
 956 0012 2370     		strb	r3, [r4]
 744:Generated_Source\PSoC4/Timer_1.c **** 
 745:Generated_Source\PSoC4/Timer_1.c ****     Timer_1_CONTROL_REG &= (uint32)~Timer_1_RELOAD_CC_MASK;
 957              		.loc 1 745 0
 958 0014 0B4B     		ldr	r3, .L59
 959 0016 0B4A     		ldr	r2, .L59
 960 0018 1268     		ldr	r2, [r2]
 961 001a 0121     		mov	r1, #1
 962 001c 8A43     		bic	r2, r1
 963 001e 1A60     		str	r2, [r3]
 746:Generated_Source\PSoC4/Timer_1.c ****     Timer_1_CONTROL_REG |= (swapEnable & Timer_1_1BIT_MASK);
 964              		.loc 1 746 0
ARM GAS  C:\Users\SHAHIL~1\AppData\Local\Temp\ccJVPaxU.s 			page 31


 965 0020 084B     		ldr	r3, .L59
 966 0022 084A     		ldr	r2, .L59
 967 0024 1168     		ldr	r1, [r2]
 968 0026 7A68     		ldr	r2, [r7, #4]
 969 0028 0120     		mov	r0, #1
 970 002a 0240     		and	r2, r0
 971 002c 0A43     		orr	r2, r1
 972 002e 1A60     		str	r2, [r3]
 747:Generated_Source\PSoC4/Timer_1.c **** 
 748:Generated_Source\PSoC4/Timer_1.c ****     CyExitCriticalSection(enableInterrupts);
 973              		.loc 1 748 0
 974 0030 0F23     		mov	r3, #15
 975 0032 FB18     		add	r3, r7, r3
 976 0034 1B78     		ldrb	r3, [r3]
 977 0036 181C     		mov	r0, r3
 978 0038 FFF7FEFF 		bl	CyExitCriticalSection
 749:Generated_Source\PSoC4/Timer_1.c **** }
 979              		.loc 1 749 0
 980 003c BD46     		mov	sp, r7
 981 003e 05B0     		add	sp, sp, #20
 982              		@ sp needed
 983 0040 90BD     		pop	{r4, r7, pc}
 984              	.L60:
 985 0042 C046     		.align	2
 986              	.L59:
 987 0044 00010540 		.word	1074069760
 988              		.cfi_endproc
 989              	.LFE18:
 990              		.size	Timer_1_SetCompareSwap, .-Timer_1_SetCompareSwap
 991              		.section	.text.Timer_1_WritePeriodBuf,"ax",%progbits
 992              		.align	2
 993              		.global	Timer_1_WritePeriodBuf
 994              		.code	16
 995              		.thumb_func
 996              		.type	Timer_1_WritePeriodBuf, %function
 997              	Timer_1_WritePeriodBuf:
 998              	.LFB19:
 750:Generated_Source\PSoC4/Timer_1.c **** 
 751:Generated_Source\PSoC4/Timer_1.c **** 
 752:Generated_Source\PSoC4/Timer_1.c **** /*******************************************************************************
 753:Generated_Source\PSoC4/Timer_1.c **** * Function Name: Timer_1_WritePeriodBuf
 754:Generated_Source\PSoC4/Timer_1.c **** ********************************************************************************
 755:Generated_Source\PSoC4/Timer_1.c **** *
 756:Generated_Source\PSoC4/Timer_1.c **** * Summary:
 757:Generated_Source\PSoC4/Timer_1.c **** *  Writes the 16 bit period buf register with the new period value.
 758:Generated_Source\PSoC4/Timer_1.c **** *
 759:Generated_Source\PSoC4/Timer_1.c **** * Parameters:
 760:Generated_Source\PSoC4/Timer_1.c **** *  periodBuf: Period value
 761:Generated_Source\PSoC4/Timer_1.c **** *
 762:Generated_Source\PSoC4/Timer_1.c **** * Return:
 763:Generated_Source\PSoC4/Timer_1.c **** *  None
 764:Generated_Source\PSoC4/Timer_1.c **** *
 765:Generated_Source\PSoC4/Timer_1.c **** *******************************************************************************/
 766:Generated_Source\PSoC4/Timer_1.c **** void Timer_1_WritePeriodBuf(uint32 periodBuf)
 767:Generated_Source\PSoC4/Timer_1.c **** {
 999              		.loc 1 767 0
 1000              		.cfi_startproc
ARM GAS  C:\Users\SHAHIL~1\AppData\Local\Temp\ccJVPaxU.s 			page 32


 1001 0000 80B5     		push	{r7, lr}
 1002              		.cfi_def_cfa_offset 8
 1003              		.cfi_offset 7, -8
 1004              		.cfi_offset 14, -4
 1005 0002 82B0     		sub	sp, sp, #8
 1006              		.cfi_def_cfa_offset 16
 1007 0004 00AF     		add	r7, sp, #0
 1008              		.cfi_def_cfa_register 7
 1009 0006 7860     		str	r0, [r7, #4]
 768:Generated_Source\PSoC4/Timer_1.c ****     Timer_1_PERIOD_BUF_REG = (periodBuf & Timer_1_16BIT_MASK);
 1010              		.loc 1 768 0
 1011 0008 034B     		ldr	r3, .L62
 1012 000a 7A68     		ldr	r2, [r7, #4]
 1013 000c 1204     		lsl	r2, r2, #16
 1014 000e 120C     		lsr	r2, r2, #16
 1015 0010 1A60     		str	r2, [r3]
 769:Generated_Source\PSoC4/Timer_1.c **** }
 1016              		.loc 1 769 0
 1017 0012 BD46     		mov	sp, r7
 1018 0014 02B0     		add	sp, sp, #8
 1019              		@ sp needed
 1020 0016 80BD     		pop	{r7, pc}
 1021              	.L63:
 1022              		.align	2
 1023              	.L62:
 1024 0018 18010540 		.word	1074069784
 1025              		.cfi_endproc
 1026              	.LFE19:
 1027              		.size	Timer_1_WritePeriodBuf, .-Timer_1_WritePeriodBuf
 1028              		.section	.text.Timer_1_ReadPeriodBuf,"ax",%progbits
 1029              		.align	2
 1030              		.global	Timer_1_ReadPeriodBuf
 1031              		.code	16
 1032              		.thumb_func
 1033              		.type	Timer_1_ReadPeriodBuf, %function
 1034              	Timer_1_ReadPeriodBuf:
 1035              	.LFB20:
 770:Generated_Source\PSoC4/Timer_1.c **** 
 771:Generated_Source\PSoC4/Timer_1.c **** 
 772:Generated_Source\PSoC4/Timer_1.c **** /*******************************************************************************
 773:Generated_Source\PSoC4/Timer_1.c **** * Function Name: Timer_1_ReadPeriodBuf
 774:Generated_Source\PSoC4/Timer_1.c **** ********************************************************************************
 775:Generated_Source\PSoC4/Timer_1.c **** *
 776:Generated_Source\PSoC4/Timer_1.c **** * Summary:
 777:Generated_Source\PSoC4/Timer_1.c **** *  Reads the 16 bit period buf register.
 778:Generated_Source\PSoC4/Timer_1.c **** *
 779:Generated_Source\PSoC4/Timer_1.c **** * Parameters:
 780:Generated_Source\PSoC4/Timer_1.c **** *  None
 781:Generated_Source\PSoC4/Timer_1.c **** *
 782:Generated_Source\PSoC4/Timer_1.c **** * Return:
 783:Generated_Source\PSoC4/Timer_1.c **** *  Period value
 784:Generated_Source\PSoC4/Timer_1.c **** *
 785:Generated_Source\PSoC4/Timer_1.c **** *******************************************************************************/
 786:Generated_Source\PSoC4/Timer_1.c **** uint32 Timer_1_ReadPeriodBuf(void)
 787:Generated_Source\PSoC4/Timer_1.c **** {
 1036              		.loc 1 787 0
 1037              		.cfi_startproc
ARM GAS  C:\Users\SHAHIL~1\AppData\Local\Temp\ccJVPaxU.s 			page 33


 1038 0000 80B5     		push	{r7, lr}
 1039              		.cfi_def_cfa_offset 8
 1040              		.cfi_offset 7, -8
 1041              		.cfi_offset 14, -4
 1042 0002 00AF     		add	r7, sp, #0
 1043              		.cfi_def_cfa_register 7
 788:Generated_Source\PSoC4/Timer_1.c ****     return (Timer_1_PERIOD_BUF_REG & Timer_1_16BIT_MASK);
 1044              		.loc 1 788 0
 1045 0004 034B     		ldr	r3, .L66
 1046 0006 1B68     		ldr	r3, [r3]
 1047 0008 1B04     		lsl	r3, r3, #16
 1048 000a 1B0C     		lsr	r3, r3, #16
 789:Generated_Source\PSoC4/Timer_1.c **** }
 1049              		.loc 1 789 0
 1050 000c 181C     		mov	r0, r3
 1051 000e BD46     		mov	sp, r7
 1052              		@ sp needed
 1053 0010 80BD     		pop	{r7, pc}
 1054              	.L67:
 1055 0012 C046     		.align	2
 1056              	.L66:
 1057 0014 18010540 		.word	1074069784
 1058              		.cfi_endproc
 1059              	.LFE20:
 1060              		.size	Timer_1_ReadPeriodBuf, .-Timer_1_ReadPeriodBuf
 1061              		.section	.text.Timer_1_SetPeriodSwap,"ax",%progbits
 1062              		.align	2
 1063              		.global	Timer_1_SetPeriodSwap
 1064              		.code	16
 1065              		.thumb_func
 1066              		.type	Timer_1_SetPeriodSwap, %function
 1067              	Timer_1_SetPeriodSwap:
 1068              	.LFB21:
 790:Generated_Source\PSoC4/Timer_1.c **** 
 791:Generated_Source\PSoC4/Timer_1.c **** 
 792:Generated_Source\PSoC4/Timer_1.c **** /*******************************************************************************
 793:Generated_Source\PSoC4/Timer_1.c **** * Function Name: Timer_1_SetPeriodSwap
 794:Generated_Source\PSoC4/Timer_1.c **** ********************************************************************************
 795:Generated_Source\PSoC4/Timer_1.c **** *
 796:Generated_Source\PSoC4/Timer_1.c **** * Summary:
 797:Generated_Source\PSoC4/Timer_1.c **** *  Writes the register that controls whether the period registers are
 798:Generated_Source\PSoC4/Timer_1.c **** *  swapped. When enabled in Timer/Counter mode the swap occurs at a TC event.
 799:Generated_Source\PSoC4/Timer_1.c **** *  In the PWM mode the swap occurs at the next TC event following a hardware
 800:Generated_Source\PSoC4/Timer_1.c **** *  switch event.
 801:Generated_Source\PSoC4/Timer_1.c **** *
 802:Generated_Source\PSoC4/Timer_1.c **** * Parameters:
 803:Generated_Source\PSoC4/Timer_1.c **** *  swapEnable
 804:Generated_Source\PSoC4/Timer_1.c **** *   Values:
 805:Generated_Source\PSoC4/Timer_1.c **** *     - 0 - Disable swap
 806:Generated_Source\PSoC4/Timer_1.c **** *     - 1 - Enable swap
 807:Generated_Source\PSoC4/Timer_1.c **** *
 808:Generated_Source\PSoC4/Timer_1.c **** * Return:
 809:Generated_Source\PSoC4/Timer_1.c **** *  None
 810:Generated_Source\PSoC4/Timer_1.c **** *
 811:Generated_Source\PSoC4/Timer_1.c **** *******************************************************************************/
 812:Generated_Source\PSoC4/Timer_1.c **** void Timer_1_SetPeriodSwap(uint32 swapEnable)
 813:Generated_Source\PSoC4/Timer_1.c **** {
ARM GAS  C:\Users\SHAHIL~1\AppData\Local\Temp\ccJVPaxU.s 			page 34


 1069              		.loc 1 813 0
 1070              		.cfi_startproc
 1071 0000 90B5     		push	{r4, r7, lr}
 1072              		.cfi_def_cfa_offset 12
 1073              		.cfi_offset 4, -12
 1074              		.cfi_offset 7, -8
 1075              		.cfi_offset 14, -4
 1076 0002 85B0     		sub	sp, sp, #20
 1077              		.cfi_def_cfa_offset 32
 1078 0004 00AF     		add	r7, sp, #0
 1079              		.cfi_def_cfa_register 7
 1080 0006 7860     		str	r0, [r7, #4]
 814:Generated_Source\PSoC4/Timer_1.c ****     uint8 enableInterrupts;
 815:Generated_Source\PSoC4/Timer_1.c **** 
 816:Generated_Source\PSoC4/Timer_1.c ****     enableInterrupts = CyEnterCriticalSection();
 1081              		.loc 1 816 0
 1082 0008 0F23     		mov	r3, #15
 1083 000a FC18     		add	r4, r7, r3
 1084 000c FFF7FEFF 		bl	CyEnterCriticalSection
 1085 0010 031C     		mov	r3, r0
 1086 0012 2370     		strb	r3, [r4]
 817:Generated_Source\PSoC4/Timer_1.c **** 
 818:Generated_Source\PSoC4/Timer_1.c ****     Timer_1_CONTROL_REG &= (uint32)~Timer_1_RELOAD_PERIOD_MASK;
 1087              		.loc 1 818 0
 1088 0014 0B4B     		ldr	r3, .L69
 1089 0016 0B4A     		ldr	r2, .L69
 1090 0018 1268     		ldr	r2, [r2]
 1091 001a 0221     		mov	r1, #2
 1092 001c 8A43     		bic	r2, r1
 1093 001e 1A60     		str	r2, [r3]
 819:Generated_Source\PSoC4/Timer_1.c ****     Timer_1_CONTROL_REG |= ((uint32)((swapEnable & Timer_1_1BIT_MASK) <<
 1094              		.loc 1 819 0
 1095 0020 084B     		ldr	r3, .L69
 1096 0022 084A     		ldr	r2, .L69
 1097 0024 1168     		ldr	r1, [r2]
 1098 0026 7A68     		ldr	r2, [r7, #4]
 1099 0028 0120     		mov	r0, #1
 1100 002a 0240     		and	r2, r0
 1101 002c 5200     		lsl	r2, r2, #1
 1102 002e 0A43     		orr	r2, r1
 1103 0030 1A60     		str	r2, [r3]
 820:Generated_Source\PSoC4/Timer_1.c ****                                                             Timer_1_RELOAD_PERIOD_SHIFT));
 821:Generated_Source\PSoC4/Timer_1.c **** 
 822:Generated_Source\PSoC4/Timer_1.c ****     CyExitCriticalSection(enableInterrupts);
 1104              		.loc 1 822 0
 1105 0032 0F23     		mov	r3, #15
 1106 0034 FB18     		add	r3, r7, r3
 1107 0036 1B78     		ldrb	r3, [r3]
 1108 0038 181C     		mov	r0, r3
 1109 003a FFF7FEFF 		bl	CyExitCriticalSection
 823:Generated_Source\PSoC4/Timer_1.c **** }
 1110              		.loc 1 823 0
 1111 003e BD46     		mov	sp, r7
 1112 0040 05B0     		add	sp, sp, #20
 1113              		@ sp needed
 1114 0042 90BD     		pop	{r4, r7, pc}
 1115              	.L70:
ARM GAS  C:\Users\SHAHIL~1\AppData\Local\Temp\ccJVPaxU.s 			page 35


 1116              		.align	2
 1117              	.L69:
 1118 0044 00010540 		.word	1074069760
 1119              		.cfi_endproc
 1120              	.LFE21:
 1121              		.size	Timer_1_SetPeriodSwap, .-Timer_1_SetPeriodSwap
 1122              		.section	.text.Timer_1_WriteCompare,"ax",%progbits
 1123              		.align	2
 1124              		.global	Timer_1_WriteCompare
 1125              		.code	16
 1126              		.thumb_func
 1127              		.type	Timer_1_WriteCompare, %function
 1128              	Timer_1_WriteCompare:
 1129              	.LFB22:
 824:Generated_Source\PSoC4/Timer_1.c **** 
 825:Generated_Source\PSoC4/Timer_1.c **** 
 826:Generated_Source\PSoC4/Timer_1.c **** /*******************************************************************************
 827:Generated_Source\PSoC4/Timer_1.c **** * Function Name: Timer_1_WriteCompare
 828:Generated_Source\PSoC4/Timer_1.c **** ********************************************************************************
 829:Generated_Source\PSoC4/Timer_1.c **** *
 830:Generated_Source\PSoC4/Timer_1.c **** * Summary:
 831:Generated_Source\PSoC4/Timer_1.c **** *  Writes the 16 bit compare register with the new compare value. Not
 832:Generated_Source\PSoC4/Timer_1.c **** *  applicable for Timer/Counter with Capture or in Quadrature Decoder modes.
 833:Generated_Source\PSoC4/Timer_1.c **** *
 834:Generated_Source\PSoC4/Timer_1.c **** * Parameters:
 835:Generated_Source\PSoC4/Timer_1.c **** *  compare: Compare value
 836:Generated_Source\PSoC4/Timer_1.c **** *
 837:Generated_Source\PSoC4/Timer_1.c **** * Return:
 838:Generated_Source\PSoC4/Timer_1.c **** *  None
 839:Generated_Source\PSoC4/Timer_1.c **** *
 840:Generated_Source\PSoC4/Timer_1.c **** * Note:
 841:Generated_Source\PSoC4/Timer_1.c **** *  It is not recommended to use the value equal to "0" or equal to 
 842:Generated_Source\PSoC4/Timer_1.c **** *  "period value" in Center or Asymmetric align PWM modes on the 
 843:Generated_Source\PSoC4/Timer_1.c **** *  PSoC 4100/PSoC 4200 devices.
 844:Generated_Source\PSoC4/Timer_1.c **** *  PSoC 4000 devices write the 16 bit compare register with the decremented 
 845:Generated_Source\PSoC4/Timer_1.c **** *  compare value in the Up counting mode (except 0x0u), and the incremented 
 846:Generated_Source\PSoC4/Timer_1.c **** *  compare value in the Down counting mode (except 0xFFFFu).
 847:Generated_Source\PSoC4/Timer_1.c **** *
 848:Generated_Source\PSoC4/Timer_1.c **** *******************************************************************************/
 849:Generated_Source\PSoC4/Timer_1.c **** void Timer_1_WriteCompare(uint32 compare)
 850:Generated_Source\PSoC4/Timer_1.c **** {
 1130              		.loc 1 850 0
 1131              		.cfi_startproc
 1132 0000 80B5     		push	{r7, lr}
 1133              		.cfi_def_cfa_offset 8
 1134              		.cfi_offset 7, -8
 1135              		.cfi_offset 14, -4
 1136 0002 82B0     		sub	sp, sp, #8
 1137              		.cfi_def_cfa_offset 16
 1138 0004 00AF     		add	r7, sp, #0
 1139              		.cfi_def_cfa_register 7
 1140 0006 7860     		str	r0, [r7, #4]
 851:Generated_Source\PSoC4/Timer_1.c ****     #if (Timer_1_CY_TCPWM_4000)
 852:Generated_Source\PSoC4/Timer_1.c ****         uint32 currentMode;
 853:Generated_Source\PSoC4/Timer_1.c ****     #endif /* (Timer_1_CY_TCPWM_4000) */
 854:Generated_Source\PSoC4/Timer_1.c **** 
 855:Generated_Source\PSoC4/Timer_1.c ****     #if (Timer_1_CY_TCPWM_4000)
ARM GAS  C:\Users\SHAHIL~1\AppData\Local\Temp\ccJVPaxU.s 			page 36


 856:Generated_Source\PSoC4/Timer_1.c ****         currentMode = ((Timer_1_CONTROL_REG & Timer_1_UPDOWN_MASK) >> Timer_1_UPDOWN_SHIFT);
 857:Generated_Source\PSoC4/Timer_1.c **** 
 858:Generated_Source\PSoC4/Timer_1.c ****         if (((uint32)Timer_1__COUNT_DOWN == currentMode) && (0xFFFFu != compare))
 859:Generated_Source\PSoC4/Timer_1.c ****         {
 860:Generated_Source\PSoC4/Timer_1.c ****             compare++;
 861:Generated_Source\PSoC4/Timer_1.c ****         }
 862:Generated_Source\PSoC4/Timer_1.c ****         else if (((uint32)Timer_1__COUNT_UP == currentMode) && (0u != compare))
 863:Generated_Source\PSoC4/Timer_1.c ****         {
 864:Generated_Source\PSoC4/Timer_1.c ****             compare--;
 865:Generated_Source\PSoC4/Timer_1.c ****         }
 866:Generated_Source\PSoC4/Timer_1.c ****         else
 867:Generated_Source\PSoC4/Timer_1.c ****         {
 868:Generated_Source\PSoC4/Timer_1.c ****         }
 869:Generated_Source\PSoC4/Timer_1.c ****         
 870:Generated_Source\PSoC4/Timer_1.c ****     
 871:Generated_Source\PSoC4/Timer_1.c ****     #endif /* (Timer_1_CY_TCPWM_4000) */
 872:Generated_Source\PSoC4/Timer_1.c ****     
 873:Generated_Source\PSoC4/Timer_1.c ****     Timer_1_COMP_CAP_REG = (compare & Timer_1_16BIT_MASK);
 1141              		.loc 1 873 0
 1142 0008 034B     		ldr	r3, .L72
 1143 000a 7A68     		ldr	r2, [r7, #4]
 1144 000c 1204     		lsl	r2, r2, #16
 1145 000e 120C     		lsr	r2, r2, #16
 1146 0010 1A60     		str	r2, [r3]
 874:Generated_Source\PSoC4/Timer_1.c **** }
 1147              		.loc 1 874 0
 1148 0012 BD46     		mov	sp, r7
 1149 0014 02B0     		add	sp, sp, #8
 1150              		@ sp needed
 1151 0016 80BD     		pop	{r7, pc}
 1152              	.L73:
 1153              		.align	2
 1154              	.L72:
 1155 0018 0C010540 		.word	1074069772
 1156              		.cfi_endproc
 1157              	.LFE22:
 1158              		.size	Timer_1_WriteCompare, .-Timer_1_WriteCompare
 1159              		.section	.text.Timer_1_ReadCompare,"ax",%progbits
 1160              		.align	2
 1161              		.global	Timer_1_ReadCompare
 1162              		.code	16
 1163              		.thumb_func
 1164              		.type	Timer_1_ReadCompare, %function
 1165              	Timer_1_ReadCompare:
 1166              	.LFB23:
 875:Generated_Source\PSoC4/Timer_1.c **** 
 876:Generated_Source\PSoC4/Timer_1.c **** 
 877:Generated_Source\PSoC4/Timer_1.c **** /*******************************************************************************
 878:Generated_Source\PSoC4/Timer_1.c **** * Function Name: Timer_1_ReadCompare
 879:Generated_Source\PSoC4/Timer_1.c **** ********************************************************************************
 880:Generated_Source\PSoC4/Timer_1.c **** *
 881:Generated_Source\PSoC4/Timer_1.c **** * Summary:
 882:Generated_Source\PSoC4/Timer_1.c **** *  Reads the compare register. Not applicable for Timer/Counter with Capture
 883:Generated_Source\PSoC4/Timer_1.c **** *  or in Quadrature Decoder modes.
 884:Generated_Source\PSoC4/Timer_1.c **** *  PSoC 4000 devices read the incremented compare register value in the 
 885:Generated_Source\PSoC4/Timer_1.c **** *  Up counting mode (except 0xFFFFu), and the decremented value in the 
 886:Generated_Source\PSoC4/Timer_1.c **** *  Down counting mode (except 0x0u).
ARM GAS  C:\Users\SHAHIL~1\AppData\Local\Temp\ccJVPaxU.s 			page 37


 887:Generated_Source\PSoC4/Timer_1.c **** *
 888:Generated_Source\PSoC4/Timer_1.c **** * Parameters:
 889:Generated_Source\PSoC4/Timer_1.c **** *  None
 890:Generated_Source\PSoC4/Timer_1.c **** *
 891:Generated_Source\PSoC4/Timer_1.c **** * Return:
 892:Generated_Source\PSoC4/Timer_1.c **** *  Compare value
 893:Generated_Source\PSoC4/Timer_1.c **** *
 894:Generated_Source\PSoC4/Timer_1.c **** * Note:
 895:Generated_Source\PSoC4/Timer_1.c **** *  PSoC 4000 devices read the incremented compare register value in the 
 896:Generated_Source\PSoC4/Timer_1.c **** *  Up counting mode (except 0xFFFFu), and the decremented value in the 
 897:Generated_Source\PSoC4/Timer_1.c **** *  Down counting mode (except 0x0u).
 898:Generated_Source\PSoC4/Timer_1.c **** *
 899:Generated_Source\PSoC4/Timer_1.c **** *******************************************************************************/
 900:Generated_Source\PSoC4/Timer_1.c **** uint32 Timer_1_ReadCompare(void)
 901:Generated_Source\PSoC4/Timer_1.c **** {
 1167              		.loc 1 901 0
 1168              		.cfi_startproc
 1169 0000 80B5     		push	{r7, lr}
 1170              		.cfi_def_cfa_offset 8
 1171              		.cfi_offset 7, -8
 1172              		.cfi_offset 14, -4
 1173 0002 00AF     		add	r7, sp, #0
 1174              		.cfi_def_cfa_register 7
 902:Generated_Source\PSoC4/Timer_1.c ****     #if (Timer_1_CY_TCPWM_4000)
 903:Generated_Source\PSoC4/Timer_1.c ****         uint32 currentMode;
 904:Generated_Source\PSoC4/Timer_1.c ****         uint32 regVal;
 905:Generated_Source\PSoC4/Timer_1.c ****     #endif /* (Timer_1_CY_TCPWM_4000) */
 906:Generated_Source\PSoC4/Timer_1.c **** 
 907:Generated_Source\PSoC4/Timer_1.c ****     #if (Timer_1_CY_TCPWM_4000)
 908:Generated_Source\PSoC4/Timer_1.c ****         currentMode = ((Timer_1_CONTROL_REG & Timer_1_UPDOWN_MASK) >> Timer_1_UPDOWN_SHIFT);
 909:Generated_Source\PSoC4/Timer_1.c ****         
 910:Generated_Source\PSoC4/Timer_1.c ****         regVal = Timer_1_COMP_CAP_REG;
 911:Generated_Source\PSoC4/Timer_1.c ****         
 912:Generated_Source\PSoC4/Timer_1.c ****         if (((uint32)Timer_1__COUNT_DOWN == currentMode) && (0u != regVal))
 913:Generated_Source\PSoC4/Timer_1.c ****         {
 914:Generated_Source\PSoC4/Timer_1.c ****             regVal--;
 915:Generated_Source\PSoC4/Timer_1.c ****         }
 916:Generated_Source\PSoC4/Timer_1.c ****         else if (((uint32)Timer_1__COUNT_UP == currentMode) && (0xFFFFu != regVal))
 917:Generated_Source\PSoC4/Timer_1.c ****         {
 918:Generated_Source\PSoC4/Timer_1.c ****             regVal++;
 919:Generated_Source\PSoC4/Timer_1.c ****         }
 920:Generated_Source\PSoC4/Timer_1.c ****         else
 921:Generated_Source\PSoC4/Timer_1.c ****         {
 922:Generated_Source\PSoC4/Timer_1.c ****         }
 923:Generated_Source\PSoC4/Timer_1.c **** 
 924:Generated_Source\PSoC4/Timer_1.c ****         return (regVal & Timer_1_16BIT_MASK);
 925:Generated_Source\PSoC4/Timer_1.c ****     #else
 926:Generated_Source\PSoC4/Timer_1.c ****         return (Timer_1_COMP_CAP_REG & Timer_1_16BIT_MASK);
 1175              		.loc 1 926 0
 1176 0004 034B     		ldr	r3, .L76
 1177 0006 1B68     		ldr	r3, [r3]
 1178 0008 1B04     		lsl	r3, r3, #16
 1179 000a 1B0C     		lsr	r3, r3, #16
 927:Generated_Source\PSoC4/Timer_1.c ****     #endif /* (Timer_1_CY_TCPWM_4000) */
 928:Generated_Source\PSoC4/Timer_1.c **** }
 1180              		.loc 1 928 0
 1181 000c 181C     		mov	r0, r3
ARM GAS  C:\Users\SHAHIL~1\AppData\Local\Temp\ccJVPaxU.s 			page 38


 1182 000e BD46     		mov	sp, r7
 1183              		@ sp needed
 1184 0010 80BD     		pop	{r7, pc}
 1185              	.L77:
 1186 0012 C046     		.align	2
 1187              	.L76:
 1188 0014 0C010540 		.word	1074069772
 1189              		.cfi_endproc
 1190              	.LFE23:
 1191              		.size	Timer_1_ReadCompare, .-Timer_1_ReadCompare
 1192              		.section	.text.Timer_1_WriteCompareBuf,"ax",%progbits
 1193              		.align	2
 1194              		.global	Timer_1_WriteCompareBuf
 1195              		.code	16
 1196              		.thumb_func
 1197              		.type	Timer_1_WriteCompareBuf, %function
 1198              	Timer_1_WriteCompareBuf:
 1199              	.LFB24:
 929:Generated_Source\PSoC4/Timer_1.c **** 
 930:Generated_Source\PSoC4/Timer_1.c **** 
 931:Generated_Source\PSoC4/Timer_1.c **** /*******************************************************************************
 932:Generated_Source\PSoC4/Timer_1.c **** * Function Name: Timer_1_WriteCompareBuf
 933:Generated_Source\PSoC4/Timer_1.c **** ********************************************************************************
 934:Generated_Source\PSoC4/Timer_1.c **** *
 935:Generated_Source\PSoC4/Timer_1.c **** * Summary:
 936:Generated_Source\PSoC4/Timer_1.c **** *  Writes the 16 bit compare buffer register with the new compare value. Not
 937:Generated_Source\PSoC4/Timer_1.c **** *  applicable for Timer/Counter with Capture or in Quadrature Decoder modes.
 938:Generated_Source\PSoC4/Timer_1.c **** *
 939:Generated_Source\PSoC4/Timer_1.c **** * Parameters:
 940:Generated_Source\PSoC4/Timer_1.c **** *  compareBuf: Compare value
 941:Generated_Source\PSoC4/Timer_1.c **** *
 942:Generated_Source\PSoC4/Timer_1.c **** * Return:
 943:Generated_Source\PSoC4/Timer_1.c **** *  None
 944:Generated_Source\PSoC4/Timer_1.c **** *
 945:Generated_Source\PSoC4/Timer_1.c **** * Note:
 946:Generated_Source\PSoC4/Timer_1.c **** *  It is not recommended to use the value equal to "0" or equal to 
 947:Generated_Source\PSoC4/Timer_1.c **** *  "period value" in Center or Asymmetric align PWM modes on the 
 948:Generated_Source\PSoC4/Timer_1.c **** *  PSoC 4100/PSoC 4200 devices.
 949:Generated_Source\PSoC4/Timer_1.c **** *  PSoC 4000 devices write the 16 bit compare register with the decremented 
 950:Generated_Source\PSoC4/Timer_1.c **** *  compare value in the Up counting mode (except 0x0u), and the incremented 
 951:Generated_Source\PSoC4/Timer_1.c **** *  compare value in the Down counting mode (except 0xFFFFu).
 952:Generated_Source\PSoC4/Timer_1.c **** *
 953:Generated_Source\PSoC4/Timer_1.c **** *******************************************************************************/
 954:Generated_Source\PSoC4/Timer_1.c **** void Timer_1_WriteCompareBuf(uint32 compareBuf)
 955:Generated_Source\PSoC4/Timer_1.c **** {
 1200              		.loc 1 955 0
 1201              		.cfi_startproc
 1202 0000 80B5     		push	{r7, lr}
 1203              		.cfi_def_cfa_offset 8
 1204              		.cfi_offset 7, -8
 1205              		.cfi_offset 14, -4
 1206 0002 82B0     		sub	sp, sp, #8
 1207              		.cfi_def_cfa_offset 16
 1208 0004 00AF     		add	r7, sp, #0
 1209              		.cfi_def_cfa_register 7
 1210 0006 7860     		str	r0, [r7, #4]
 956:Generated_Source\PSoC4/Timer_1.c ****     #if (Timer_1_CY_TCPWM_4000)
ARM GAS  C:\Users\SHAHIL~1\AppData\Local\Temp\ccJVPaxU.s 			page 39


 957:Generated_Source\PSoC4/Timer_1.c ****         uint32 currentMode;
 958:Generated_Source\PSoC4/Timer_1.c ****     #endif /* (Timer_1_CY_TCPWM_4000) */
 959:Generated_Source\PSoC4/Timer_1.c **** 
 960:Generated_Source\PSoC4/Timer_1.c ****     #if (Timer_1_CY_TCPWM_4000)
 961:Generated_Source\PSoC4/Timer_1.c ****         currentMode = ((Timer_1_CONTROL_REG & Timer_1_UPDOWN_MASK) >> Timer_1_UPDOWN_SHIFT);
 962:Generated_Source\PSoC4/Timer_1.c **** 
 963:Generated_Source\PSoC4/Timer_1.c ****         if (((uint32)Timer_1__COUNT_DOWN == currentMode) && (0xFFFFu != compareBuf))
 964:Generated_Source\PSoC4/Timer_1.c ****         {
 965:Generated_Source\PSoC4/Timer_1.c ****             compareBuf++;
 966:Generated_Source\PSoC4/Timer_1.c ****         }
 967:Generated_Source\PSoC4/Timer_1.c ****         else if (((uint32)Timer_1__COUNT_UP == currentMode) && (0u != compareBuf))
 968:Generated_Source\PSoC4/Timer_1.c ****         {
 969:Generated_Source\PSoC4/Timer_1.c ****             compareBuf --;
 970:Generated_Source\PSoC4/Timer_1.c ****         }
 971:Generated_Source\PSoC4/Timer_1.c ****         else
 972:Generated_Source\PSoC4/Timer_1.c ****         {
 973:Generated_Source\PSoC4/Timer_1.c ****         }
 974:Generated_Source\PSoC4/Timer_1.c ****     #endif /* (Timer_1_CY_TCPWM_4000) */
 975:Generated_Source\PSoC4/Timer_1.c ****     
 976:Generated_Source\PSoC4/Timer_1.c ****     Timer_1_COMP_CAP_BUF_REG = (compareBuf & Timer_1_16BIT_MASK);
 1211              		.loc 1 976 0
 1212 0008 034B     		ldr	r3, .L79
 1213 000a 7A68     		ldr	r2, [r7, #4]
 1214 000c 1204     		lsl	r2, r2, #16
 1215 000e 120C     		lsr	r2, r2, #16
 1216 0010 1A60     		str	r2, [r3]
 977:Generated_Source\PSoC4/Timer_1.c **** }
 1217              		.loc 1 977 0
 1218 0012 BD46     		mov	sp, r7
 1219 0014 02B0     		add	sp, sp, #8
 1220              		@ sp needed
 1221 0016 80BD     		pop	{r7, pc}
 1222              	.L80:
 1223              		.align	2
 1224              	.L79:
 1225 0018 10010540 		.word	1074069776
 1226              		.cfi_endproc
 1227              	.LFE24:
 1228              		.size	Timer_1_WriteCompareBuf, .-Timer_1_WriteCompareBuf
 1229              		.section	.text.Timer_1_ReadCompareBuf,"ax",%progbits
 1230              		.align	2
 1231              		.global	Timer_1_ReadCompareBuf
 1232              		.code	16
 1233              		.thumb_func
 1234              		.type	Timer_1_ReadCompareBuf, %function
 1235              	Timer_1_ReadCompareBuf:
 1236              	.LFB25:
 978:Generated_Source\PSoC4/Timer_1.c **** 
 979:Generated_Source\PSoC4/Timer_1.c **** 
 980:Generated_Source\PSoC4/Timer_1.c **** /*******************************************************************************
 981:Generated_Source\PSoC4/Timer_1.c **** * Function Name: Timer_1_ReadCompareBuf
 982:Generated_Source\PSoC4/Timer_1.c **** ********************************************************************************
 983:Generated_Source\PSoC4/Timer_1.c **** *
 984:Generated_Source\PSoC4/Timer_1.c **** * Summary:
 985:Generated_Source\PSoC4/Timer_1.c **** *  Reads the compare buffer register. Not applicable for Timer/Counter with
 986:Generated_Source\PSoC4/Timer_1.c **** *  Capture or in Quadrature Decoder modes.
 987:Generated_Source\PSoC4/Timer_1.c **** *
ARM GAS  C:\Users\SHAHIL~1\AppData\Local\Temp\ccJVPaxU.s 			page 40


 988:Generated_Source\PSoC4/Timer_1.c **** * Parameters:
 989:Generated_Source\PSoC4/Timer_1.c **** *  None
 990:Generated_Source\PSoC4/Timer_1.c **** *
 991:Generated_Source\PSoC4/Timer_1.c **** * Return:
 992:Generated_Source\PSoC4/Timer_1.c **** *  Compare buffer value
 993:Generated_Source\PSoC4/Timer_1.c **** *
 994:Generated_Source\PSoC4/Timer_1.c **** * Note:
 995:Generated_Source\PSoC4/Timer_1.c **** *  PSoC 4000 devices read the incremented compare register value in the 
 996:Generated_Source\PSoC4/Timer_1.c **** *  Up counting mode (except 0xFFFFu), and the decremented value in the 
 997:Generated_Source\PSoC4/Timer_1.c **** *  Down counting mode (except 0x0u).
 998:Generated_Source\PSoC4/Timer_1.c **** *
 999:Generated_Source\PSoC4/Timer_1.c **** *******************************************************************************/
1000:Generated_Source\PSoC4/Timer_1.c **** uint32 Timer_1_ReadCompareBuf(void)
1001:Generated_Source\PSoC4/Timer_1.c **** {
 1237              		.loc 1 1001 0
 1238              		.cfi_startproc
 1239 0000 80B5     		push	{r7, lr}
 1240              		.cfi_def_cfa_offset 8
 1241              		.cfi_offset 7, -8
 1242              		.cfi_offset 14, -4
 1243 0002 00AF     		add	r7, sp, #0
 1244              		.cfi_def_cfa_register 7
1002:Generated_Source\PSoC4/Timer_1.c ****     #if (Timer_1_CY_TCPWM_4000)
1003:Generated_Source\PSoC4/Timer_1.c ****         uint32 currentMode;
1004:Generated_Source\PSoC4/Timer_1.c ****         uint32 regVal;
1005:Generated_Source\PSoC4/Timer_1.c ****     #endif /* (Timer_1_CY_TCPWM_4000) */
1006:Generated_Source\PSoC4/Timer_1.c **** 
1007:Generated_Source\PSoC4/Timer_1.c ****     #if (Timer_1_CY_TCPWM_4000)
1008:Generated_Source\PSoC4/Timer_1.c ****         currentMode = ((Timer_1_CONTROL_REG & Timer_1_UPDOWN_MASK) >> Timer_1_UPDOWN_SHIFT);
1009:Generated_Source\PSoC4/Timer_1.c **** 
1010:Generated_Source\PSoC4/Timer_1.c ****         regVal = Timer_1_COMP_CAP_BUF_REG;
1011:Generated_Source\PSoC4/Timer_1.c ****         
1012:Generated_Source\PSoC4/Timer_1.c ****         if (((uint32)Timer_1__COUNT_DOWN == currentMode) && (0u != regVal))
1013:Generated_Source\PSoC4/Timer_1.c ****         {
1014:Generated_Source\PSoC4/Timer_1.c ****             regVal--;
1015:Generated_Source\PSoC4/Timer_1.c ****         }
1016:Generated_Source\PSoC4/Timer_1.c ****         else if (((uint32)Timer_1__COUNT_UP == currentMode) && (0xFFFFu != regVal))
1017:Generated_Source\PSoC4/Timer_1.c ****         {
1018:Generated_Source\PSoC4/Timer_1.c ****             regVal++;
1019:Generated_Source\PSoC4/Timer_1.c ****         }
1020:Generated_Source\PSoC4/Timer_1.c ****         else
1021:Generated_Source\PSoC4/Timer_1.c ****         {
1022:Generated_Source\PSoC4/Timer_1.c ****         }
1023:Generated_Source\PSoC4/Timer_1.c **** 
1024:Generated_Source\PSoC4/Timer_1.c ****         return (regVal & Timer_1_16BIT_MASK);
1025:Generated_Source\PSoC4/Timer_1.c ****     #else
1026:Generated_Source\PSoC4/Timer_1.c ****         return (Timer_1_COMP_CAP_BUF_REG & Timer_1_16BIT_MASK);
 1245              		.loc 1 1026 0
 1246 0004 034B     		ldr	r3, .L83
 1247 0006 1B68     		ldr	r3, [r3]
 1248 0008 1B04     		lsl	r3, r3, #16
 1249 000a 1B0C     		lsr	r3, r3, #16
1027:Generated_Source\PSoC4/Timer_1.c ****     #endif /* (Timer_1_CY_TCPWM_4000) */
1028:Generated_Source\PSoC4/Timer_1.c **** }
 1250              		.loc 1 1028 0
 1251 000c 181C     		mov	r0, r3
 1252 000e BD46     		mov	sp, r7
ARM GAS  C:\Users\SHAHIL~1\AppData\Local\Temp\ccJVPaxU.s 			page 41


 1253              		@ sp needed
 1254 0010 80BD     		pop	{r7, pc}
 1255              	.L84:
 1256 0012 C046     		.align	2
 1257              	.L83:
 1258 0014 10010540 		.word	1074069776
 1259              		.cfi_endproc
 1260              	.LFE25:
 1261              		.size	Timer_1_ReadCompareBuf, .-Timer_1_ReadCompareBuf
 1262              		.section	.text.Timer_1_ReadCapture,"ax",%progbits
 1263              		.align	2
 1264              		.global	Timer_1_ReadCapture
 1265              		.code	16
 1266              		.thumb_func
 1267              		.type	Timer_1_ReadCapture, %function
 1268              	Timer_1_ReadCapture:
 1269              	.LFB26:
1029:Generated_Source\PSoC4/Timer_1.c **** 
1030:Generated_Source\PSoC4/Timer_1.c **** 
1031:Generated_Source\PSoC4/Timer_1.c **** /*******************************************************************************
1032:Generated_Source\PSoC4/Timer_1.c **** * Function Name: Timer_1_ReadCapture
1033:Generated_Source\PSoC4/Timer_1.c **** ********************************************************************************
1034:Generated_Source\PSoC4/Timer_1.c **** *
1035:Generated_Source\PSoC4/Timer_1.c **** * Summary:
1036:Generated_Source\PSoC4/Timer_1.c **** *  Reads the captured counter value. This API is applicable only for
1037:Generated_Source\PSoC4/Timer_1.c **** *  Timer/Counter with the capture mode and Quadrature Decoder modes.
1038:Generated_Source\PSoC4/Timer_1.c **** *
1039:Generated_Source\PSoC4/Timer_1.c **** * Parameters:
1040:Generated_Source\PSoC4/Timer_1.c **** *  None
1041:Generated_Source\PSoC4/Timer_1.c **** *
1042:Generated_Source\PSoC4/Timer_1.c **** * Return:
1043:Generated_Source\PSoC4/Timer_1.c **** *  Capture value
1044:Generated_Source\PSoC4/Timer_1.c **** *
1045:Generated_Source\PSoC4/Timer_1.c **** *******************************************************************************/
1046:Generated_Source\PSoC4/Timer_1.c **** uint32 Timer_1_ReadCapture(void)
1047:Generated_Source\PSoC4/Timer_1.c **** {
 1270              		.loc 1 1047 0
 1271              		.cfi_startproc
 1272 0000 80B5     		push	{r7, lr}
 1273              		.cfi_def_cfa_offset 8
 1274              		.cfi_offset 7, -8
 1275              		.cfi_offset 14, -4
 1276 0002 00AF     		add	r7, sp, #0
 1277              		.cfi_def_cfa_register 7
1048:Generated_Source\PSoC4/Timer_1.c ****     return (Timer_1_COMP_CAP_REG & Timer_1_16BIT_MASK);
 1278              		.loc 1 1048 0
 1279 0004 034B     		ldr	r3, .L87
 1280 0006 1B68     		ldr	r3, [r3]
 1281 0008 1B04     		lsl	r3, r3, #16
 1282 000a 1B0C     		lsr	r3, r3, #16
1049:Generated_Source\PSoC4/Timer_1.c **** }
 1283              		.loc 1 1049 0
 1284 000c 181C     		mov	r0, r3
 1285 000e BD46     		mov	sp, r7
 1286              		@ sp needed
 1287 0010 80BD     		pop	{r7, pc}
 1288              	.L88:
ARM GAS  C:\Users\SHAHIL~1\AppData\Local\Temp\ccJVPaxU.s 			page 42


 1289 0012 C046     		.align	2
 1290              	.L87:
 1291 0014 0C010540 		.word	1074069772
 1292              		.cfi_endproc
 1293              	.LFE26:
 1294              		.size	Timer_1_ReadCapture, .-Timer_1_ReadCapture
 1295              		.section	.text.Timer_1_ReadCaptureBuf,"ax",%progbits
 1296              		.align	2
 1297              		.global	Timer_1_ReadCaptureBuf
 1298              		.code	16
 1299              		.thumb_func
 1300              		.type	Timer_1_ReadCaptureBuf, %function
 1301              	Timer_1_ReadCaptureBuf:
 1302              	.LFB27:
1050:Generated_Source\PSoC4/Timer_1.c **** 
1051:Generated_Source\PSoC4/Timer_1.c **** 
1052:Generated_Source\PSoC4/Timer_1.c **** /*******************************************************************************
1053:Generated_Source\PSoC4/Timer_1.c **** * Function Name: Timer_1_ReadCaptureBuf
1054:Generated_Source\PSoC4/Timer_1.c **** ********************************************************************************
1055:Generated_Source\PSoC4/Timer_1.c **** *
1056:Generated_Source\PSoC4/Timer_1.c **** * Summary:
1057:Generated_Source\PSoC4/Timer_1.c **** *  Reads the capture buffer register. This API is applicable only for
1058:Generated_Source\PSoC4/Timer_1.c **** *  Timer/Counter with the capture mode and Quadrature Decoder modes.
1059:Generated_Source\PSoC4/Timer_1.c **** *
1060:Generated_Source\PSoC4/Timer_1.c **** * Parameters:
1061:Generated_Source\PSoC4/Timer_1.c **** *  None
1062:Generated_Source\PSoC4/Timer_1.c **** *
1063:Generated_Source\PSoC4/Timer_1.c **** * Return:
1064:Generated_Source\PSoC4/Timer_1.c **** *  Capture buffer value
1065:Generated_Source\PSoC4/Timer_1.c **** *
1066:Generated_Source\PSoC4/Timer_1.c **** *******************************************************************************/
1067:Generated_Source\PSoC4/Timer_1.c **** uint32 Timer_1_ReadCaptureBuf(void)
1068:Generated_Source\PSoC4/Timer_1.c **** {
 1303              		.loc 1 1068 0
 1304              		.cfi_startproc
 1305 0000 80B5     		push	{r7, lr}
 1306              		.cfi_def_cfa_offset 8
 1307              		.cfi_offset 7, -8
 1308              		.cfi_offset 14, -4
 1309 0002 00AF     		add	r7, sp, #0
 1310              		.cfi_def_cfa_register 7
1069:Generated_Source\PSoC4/Timer_1.c ****     return (Timer_1_COMP_CAP_BUF_REG & Timer_1_16BIT_MASK);
 1311              		.loc 1 1069 0
 1312 0004 034B     		ldr	r3, .L91
 1313 0006 1B68     		ldr	r3, [r3]
 1314 0008 1B04     		lsl	r3, r3, #16
 1315 000a 1B0C     		lsr	r3, r3, #16
1070:Generated_Source\PSoC4/Timer_1.c **** }
 1316              		.loc 1 1070 0
 1317 000c 181C     		mov	r0, r3
 1318 000e BD46     		mov	sp, r7
 1319              		@ sp needed
 1320 0010 80BD     		pop	{r7, pc}
 1321              	.L92:
 1322 0012 C046     		.align	2
 1323              	.L91:
 1324 0014 10010540 		.word	1074069776
ARM GAS  C:\Users\SHAHIL~1\AppData\Local\Temp\ccJVPaxU.s 			page 43


 1325              		.cfi_endproc
 1326              	.LFE27:
 1327              		.size	Timer_1_ReadCaptureBuf, .-Timer_1_ReadCaptureBuf
 1328              		.section	.text.Timer_1_SetCaptureMode,"ax",%progbits
 1329              		.align	2
 1330              		.global	Timer_1_SetCaptureMode
 1331              		.code	16
 1332              		.thumb_func
 1333              		.type	Timer_1_SetCaptureMode, %function
 1334              	Timer_1_SetCaptureMode:
 1335              	.LFB28:
1071:Generated_Source\PSoC4/Timer_1.c **** 
1072:Generated_Source\PSoC4/Timer_1.c **** 
1073:Generated_Source\PSoC4/Timer_1.c **** /*******************************************************************************
1074:Generated_Source\PSoC4/Timer_1.c **** * Function Name: Timer_1_SetCaptureMode
1075:Generated_Source\PSoC4/Timer_1.c **** ********************************************************************************
1076:Generated_Source\PSoC4/Timer_1.c **** *
1077:Generated_Source\PSoC4/Timer_1.c **** * Summary:
1078:Generated_Source\PSoC4/Timer_1.c **** *  Sets the capture trigger mode. For PWM mode this is the switch input.
1079:Generated_Source\PSoC4/Timer_1.c **** *  This input is not applicable to the Timer/Counter without Capture and
1080:Generated_Source\PSoC4/Timer_1.c **** *  Quadrature Decoder modes.
1081:Generated_Source\PSoC4/Timer_1.c **** *
1082:Generated_Source\PSoC4/Timer_1.c **** * Parameters:
1083:Generated_Source\PSoC4/Timer_1.c **** *  triggerMode: Enumerated trigger mode value
1084:Generated_Source\PSoC4/Timer_1.c **** *   Values:
1085:Generated_Source\PSoC4/Timer_1.c **** *     - Timer_1_TRIG_LEVEL     - Level
1086:Generated_Source\PSoC4/Timer_1.c **** *     - Timer_1_TRIG_RISING    - Rising edge
1087:Generated_Source\PSoC4/Timer_1.c **** *     - Timer_1_TRIG_FALLING   - Falling edge
1088:Generated_Source\PSoC4/Timer_1.c **** *     - Timer_1_TRIG_BOTH      - Both rising and falling edge
1089:Generated_Source\PSoC4/Timer_1.c **** *
1090:Generated_Source\PSoC4/Timer_1.c **** * Return:
1091:Generated_Source\PSoC4/Timer_1.c **** *  None
1092:Generated_Source\PSoC4/Timer_1.c **** *
1093:Generated_Source\PSoC4/Timer_1.c **** *******************************************************************************/
1094:Generated_Source\PSoC4/Timer_1.c **** void Timer_1_SetCaptureMode(uint32 triggerMode)
1095:Generated_Source\PSoC4/Timer_1.c **** {
 1336              		.loc 1 1095 0
 1337              		.cfi_startproc
 1338 0000 90B5     		push	{r4, r7, lr}
 1339              		.cfi_def_cfa_offset 12
 1340              		.cfi_offset 4, -12
 1341              		.cfi_offset 7, -8
 1342              		.cfi_offset 14, -4
 1343 0002 85B0     		sub	sp, sp, #20
 1344              		.cfi_def_cfa_offset 32
 1345 0004 00AF     		add	r7, sp, #0
 1346              		.cfi_def_cfa_register 7
 1347 0006 7860     		str	r0, [r7, #4]
1096:Generated_Source\PSoC4/Timer_1.c ****     uint8 enableInterrupts;
1097:Generated_Source\PSoC4/Timer_1.c **** 
1098:Generated_Source\PSoC4/Timer_1.c ****     enableInterrupts = CyEnterCriticalSection();
 1348              		.loc 1 1098 0
 1349 0008 0F23     		mov	r3, #15
 1350 000a FC18     		add	r4, r7, r3
 1351 000c FFF7FEFF 		bl	CyEnterCriticalSection
 1352 0010 031C     		mov	r3, r0
 1353 0012 2370     		strb	r3, [r4]
ARM GAS  C:\Users\SHAHIL~1\AppData\Local\Temp\ccJVPaxU.s 			page 44


1099:Generated_Source\PSoC4/Timer_1.c **** 
1100:Generated_Source\PSoC4/Timer_1.c ****     Timer_1_TRIG_CONTROL1_REG &= (uint32)~Timer_1_CAPTURE_MASK;
 1354              		.loc 1 1100 0
 1355 0014 0A4B     		ldr	r3, .L94
 1356 0016 0A4A     		ldr	r2, .L94
 1357 0018 1268     		ldr	r2, [r2]
 1358 001a 0321     		mov	r1, #3
 1359 001c 8A43     		bic	r2, r1
 1360 001e 1A60     		str	r2, [r3]
1101:Generated_Source\PSoC4/Timer_1.c ****     Timer_1_TRIG_CONTROL1_REG |= triggerMode;
 1361              		.loc 1 1101 0
 1362 0020 074B     		ldr	r3, .L94
 1363 0022 074A     		ldr	r2, .L94
 1364 0024 1168     		ldr	r1, [r2]
 1365 0026 7A68     		ldr	r2, [r7, #4]
 1366 0028 0A43     		orr	r2, r1
 1367 002a 1A60     		str	r2, [r3]
1102:Generated_Source\PSoC4/Timer_1.c **** 
1103:Generated_Source\PSoC4/Timer_1.c ****     CyExitCriticalSection(enableInterrupts);
 1368              		.loc 1 1103 0
 1369 002c 0F23     		mov	r3, #15
 1370 002e FB18     		add	r3, r7, r3
 1371 0030 1B78     		ldrb	r3, [r3]
 1372 0032 181C     		mov	r0, r3
 1373 0034 FFF7FEFF 		bl	CyExitCriticalSection
1104:Generated_Source\PSoC4/Timer_1.c **** }
 1374              		.loc 1 1104 0
 1375 0038 BD46     		mov	sp, r7
 1376 003a 05B0     		add	sp, sp, #20
 1377              		@ sp needed
 1378 003c 90BD     		pop	{r4, r7, pc}
 1379              	.L95:
 1380 003e C046     		.align	2
 1381              	.L94:
 1382 0040 24010540 		.word	1074069796
 1383              		.cfi_endproc
 1384              	.LFE28:
 1385              		.size	Timer_1_SetCaptureMode, .-Timer_1_SetCaptureMode
 1386              		.section	.text.Timer_1_SetReloadMode,"ax",%progbits
 1387              		.align	2
 1388              		.global	Timer_1_SetReloadMode
 1389              		.code	16
 1390              		.thumb_func
 1391              		.type	Timer_1_SetReloadMode, %function
 1392              	Timer_1_SetReloadMode:
 1393              	.LFB29:
1105:Generated_Source\PSoC4/Timer_1.c **** 
1106:Generated_Source\PSoC4/Timer_1.c **** 
1107:Generated_Source\PSoC4/Timer_1.c **** /*******************************************************************************
1108:Generated_Source\PSoC4/Timer_1.c **** * Function Name: Timer_1_SetReloadMode
1109:Generated_Source\PSoC4/Timer_1.c **** ********************************************************************************
1110:Generated_Source\PSoC4/Timer_1.c **** *
1111:Generated_Source\PSoC4/Timer_1.c **** * Summary:
1112:Generated_Source\PSoC4/Timer_1.c **** *  Sets the reload trigger mode. For Quadrature Decoder mode this is the index
1113:Generated_Source\PSoC4/Timer_1.c **** *  input.
1114:Generated_Source\PSoC4/Timer_1.c **** *
1115:Generated_Source\PSoC4/Timer_1.c **** * Parameters:
ARM GAS  C:\Users\SHAHIL~1\AppData\Local\Temp\ccJVPaxU.s 			page 45


1116:Generated_Source\PSoC4/Timer_1.c **** *  triggerMode: Enumerated trigger mode value
1117:Generated_Source\PSoC4/Timer_1.c **** *   Values:
1118:Generated_Source\PSoC4/Timer_1.c **** *     - Timer_1_TRIG_LEVEL     - Level
1119:Generated_Source\PSoC4/Timer_1.c **** *     - Timer_1_TRIG_RISING    - Rising edge
1120:Generated_Source\PSoC4/Timer_1.c **** *     - Timer_1_TRIG_FALLING   - Falling edge
1121:Generated_Source\PSoC4/Timer_1.c **** *     - Timer_1_TRIG_BOTH      - Both rising and falling edge
1122:Generated_Source\PSoC4/Timer_1.c **** *
1123:Generated_Source\PSoC4/Timer_1.c **** * Return:
1124:Generated_Source\PSoC4/Timer_1.c **** *  None
1125:Generated_Source\PSoC4/Timer_1.c **** *
1126:Generated_Source\PSoC4/Timer_1.c **** *******************************************************************************/
1127:Generated_Source\PSoC4/Timer_1.c **** void Timer_1_SetReloadMode(uint32 triggerMode)
1128:Generated_Source\PSoC4/Timer_1.c **** {
 1394              		.loc 1 1128 0
 1395              		.cfi_startproc
 1396 0000 90B5     		push	{r4, r7, lr}
 1397              		.cfi_def_cfa_offset 12
 1398              		.cfi_offset 4, -12
 1399              		.cfi_offset 7, -8
 1400              		.cfi_offset 14, -4
 1401 0002 85B0     		sub	sp, sp, #20
 1402              		.cfi_def_cfa_offset 32
 1403 0004 00AF     		add	r7, sp, #0
 1404              		.cfi_def_cfa_register 7
 1405 0006 7860     		str	r0, [r7, #4]
1129:Generated_Source\PSoC4/Timer_1.c ****     uint8 enableInterrupts;
1130:Generated_Source\PSoC4/Timer_1.c **** 
1131:Generated_Source\PSoC4/Timer_1.c ****     enableInterrupts = CyEnterCriticalSection();
 1406              		.loc 1 1131 0
 1407 0008 0F23     		mov	r3, #15
 1408 000a FC18     		add	r4, r7, r3
 1409 000c FFF7FEFF 		bl	CyEnterCriticalSection
 1410 0010 031C     		mov	r3, r0
 1411 0012 2370     		strb	r3, [r4]
1132:Generated_Source\PSoC4/Timer_1.c **** 
1133:Generated_Source\PSoC4/Timer_1.c ****     Timer_1_TRIG_CONTROL1_REG &= (uint32)~Timer_1_RELOAD_MASK;
 1412              		.loc 1 1133 0
 1413 0014 0A4B     		ldr	r3, .L97
 1414 0016 0A4A     		ldr	r2, .L97
 1415 0018 1268     		ldr	r2, [r2]
 1416 001a 3021     		mov	r1, #48
 1417 001c 8A43     		bic	r2, r1
 1418 001e 1A60     		str	r2, [r3]
1134:Generated_Source\PSoC4/Timer_1.c ****     Timer_1_TRIG_CONTROL1_REG |= ((uint32)(triggerMode << Timer_1_RELOAD_SHIFT));
 1419              		.loc 1 1134 0
 1420 0020 074B     		ldr	r3, .L97
 1421 0022 074A     		ldr	r2, .L97
 1422 0024 1168     		ldr	r1, [r2]
 1423 0026 7A68     		ldr	r2, [r7, #4]
 1424 0028 1201     		lsl	r2, r2, #4
 1425 002a 0A43     		orr	r2, r1
 1426 002c 1A60     		str	r2, [r3]
1135:Generated_Source\PSoC4/Timer_1.c **** 
1136:Generated_Source\PSoC4/Timer_1.c ****     CyExitCriticalSection(enableInterrupts);
 1427              		.loc 1 1136 0
 1428 002e 0F23     		mov	r3, #15
 1429 0030 FB18     		add	r3, r7, r3
ARM GAS  C:\Users\SHAHIL~1\AppData\Local\Temp\ccJVPaxU.s 			page 46


 1430 0032 1B78     		ldrb	r3, [r3]
 1431 0034 181C     		mov	r0, r3
 1432 0036 FFF7FEFF 		bl	CyExitCriticalSection
1137:Generated_Source\PSoC4/Timer_1.c **** }
 1433              		.loc 1 1137 0
 1434 003a BD46     		mov	sp, r7
 1435 003c 05B0     		add	sp, sp, #20
 1436              		@ sp needed
 1437 003e 90BD     		pop	{r4, r7, pc}
 1438              	.L98:
 1439              		.align	2
 1440              	.L97:
 1441 0040 24010540 		.word	1074069796
 1442              		.cfi_endproc
 1443              	.LFE29:
 1444              		.size	Timer_1_SetReloadMode, .-Timer_1_SetReloadMode
 1445              		.section	.text.Timer_1_SetStartMode,"ax",%progbits
 1446              		.align	2
 1447              		.global	Timer_1_SetStartMode
 1448              		.code	16
 1449              		.thumb_func
 1450              		.type	Timer_1_SetStartMode, %function
 1451              	Timer_1_SetStartMode:
 1452              	.LFB30:
1138:Generated_Source\PSoC4/Timer_1.c **** 
1139:Generated_Source\PSoC4/Timer_1.c **** 
1140:Generated_Source\PSoC4/Timer_1.c **** /*******************************************************************************
1141:Generated_Source\PSoC4/Timer_1.c **** * Function Name: Timer_1_SetStartMode
1142:Generated_Source\PSoC4/Timer_1.c **** ********************************************************************************
1143:Generated_Source\PSoC4/Timer_1.c **** *
1144:Generated_Source\PSoC4/Timer_1.c **** * Summary:
1145:Generated_Source\PSoC4/Timer_1.c **** *  Sets the start trigger mode. For Quadrature Decoder mode this is the
1146:Generated_Source\PSoC4/Timer_1.c **** *  phiB input.
1147:Generated_Source\PSoC4/Timer_1.c **** *
1148:Generated_Source\PSoC4/Timer_1.c **** * Parameters:
1149:Generated_Source\PSoC4/Timer_1.c **** *  triggerMode: Enumerated trigger mode value
1150:Generated_Source\PSoC4/Timer_1.c **** *   Values:
1151:Generated_Source\PSoC4/Timer_1.c **** *     - Timer_1_TRIG_LEVEL     - Level
1152:Generated_Source\PSoC4/Timer_1.c **** *     - Timer_1_TRIG_RISING    - Rising edge
1153:Generated_Source\PSoC4/Timer_1.c **** *     - Timer_1_TRIG_FALLING   - Falling edge
1154:Generated_Source\PSoC4/Timer_1.c **** *     - Timer_1_TRIG_BOTH      - Both rising and falling edge
1155:Generated_Source\PSoC4/Timer_1.c **** *
1156:Generated_Source\PSoC4/Timer_1.c **** * Return:
1157:Generated_Source\PSoC4/Timer_1.c **** *  None
1158:Generated_Source\PSoC4/Timer_1.c **** *
1159:Generated_Source\PSoC4/Timer_1.c **** *******************************************************************************/
1160:Generated_Source\PSoC4/Timer_1.c **** void Timer_1_SetStartMode(uint32 triggerMode)
1161:Generated_Source\PSoC4/Timer_1.c **** {
 1453              		.loc 1 1161 0
 1454              		.cfi_startproc
 1455 0000 90B5     		push	{r4, r7, lr}
 1456              		.cfi_def_cfa_offset 12
 1457              		.cfi_offset 4, -12
 1458              		.cfi_offset 7, -8
 1459              		.cfi_offset 14, -4
 1460 0002 85B0     		sub	sp, sp, #20
 1461              		.cfi_def_cfa_offset 32
ARM GAS  C:\Users\SHAHIL~1\AppData\Local\Temp\ccJVPaxU.s 			page 47


 1462 0004 00AF     		add	r7, sp, #0
 1463              		.cfi_def_cfa_register 7
 1464 0006 7860     		str	r0, [r7, #4]
1162:Generated_Source\PSoC4/Timer_1.c ****     uint8 enableInterrupts;
1163:Generated_Source\PSoC4/Timer_1.c **** 
1164:Generated_Source\PSoC4/Timer_1.c ****     enableInterrupts = CyEnterCriticalSection();
 1465              		.loc 1 1164 0
 1466 0008 0F23     		mov	r3, #15
 1467 000a FC18     		add	r4, r7, r3
 1468 000c FFF7FEFF 		bl	CyEnterCriticalSection
 1469 0010 031C     		mov	r3, r0
 1470 0012 2370     		strb	r3, [r4]
1165:Generated_Source\PSoC4/Timer_1.c **** 
1166:Generated_Source\PSoC4/Timer_1.c ****     Timer_1_TRIG_CONTROL1_REG &= (uint32)~Timer_1_START_MASK;
 1471              		.loc 1 1166 0
 1472 0014 0A4B     		ldr	r3, .L100
 1473 0016 0A4A     		ldr	r2, .L100
 1474 0018 1268     		ldr	r2, [r2]
 1475 001a 0A49     		ldr	r1, .L100+4
 1476 001c 0A40     		and	r2, r1
 1477 001e 1A60     		str	r2, [r3]
1167:Generated_Source\PSoC4/Timer_1.c ****     Timer_1_TRIG_CONTROL1_REG |= ((uint32)(triggerMode << Timer_1_START_SHIFT));
 1478              		.loc 1 1167 0
 1479 0020 074B     		ldr	r3, .L100
 1480 0022 074A     		ldr	r2, .L100
 1481 0024 1168     		ldr	r1, [r2]
 1482 0026 7A68     		ldr	r2, [r7, #4]
 1483 0028 1202     		lsl	r2, r2, #8
 1484 002a 0A43     		orr	r2, r1
 1485 002c 1A60     		str	r2, [r3]
1168:Generated_Source\PSoC4/Timer_1.c **** 
1169:Generated_Source\PSoC4/Timer_1.c ****     CyExitCriticalSection(enableInterrupts);
 1486              		.loc 1 1169 0
 1487 002e 0F23     		mov	r3, #15
 1488 0030 FB18     		add	r3, r7, r3
 1489 0032 1B78     		ldrb	r3, [r3]
 1490 0034 181C     		mov	r0, r3
 1491 0036 FFF7FEFF 		bl	CyExitCriticalSection
1170:Generated_Source\PSoC4/Timer_1.c **** }
 1492              		.loc 1 1170 0
 1493 003a BD46     		mov	sp, r7
 1494 003c 05B0     		add	sp, sp, #20
 1495              		@ sp needed
 1496 003e 90BD     		pop	{r4, r7, pc}
 1497              	.L101:
 1498              		.align	2
 1499              	.L100:
 1500 0040 24010540 		.word	1074069796
 1501 0044 FFFCFFFF 		.word	-769
 1502              		.cfi_endproc
 1503              	.LFE30:
 1504              		.size	Timer_1_SetStartMode, .-Timer_1_SetStartMode
 1505              		.section	.text.Timer_1_SetStopMode,"ax",%progbits
 1506              		.align	2
 1507              		.global	Timer_1_SetStopMode
 1508              		.code	16
 1509              		.thumb_func
ARM GAS  C:\Users\SHAHIL~1\AppData\Local\Temp\ccJVPaxU.s 			page 48


 1510              		.type	Timer_1_SetStopMode, %function
 1511              	Timer_1_SetStopMode:
 1512              	.LFB31:
1171:Generated_Source\PSoC4/Timer_1.c **** 
1172:Generated_Source\PSoC4/Timer_1.c **** 
1173:Generated_Source\PSoC4/Timer_1.c **** /*******************************************************************************
1174:Generated_Source\PSoC4/Timer_1.c **** * Function Name: Timer_1_SetStopMode
1175:Generated_Source\PSoC4/Timer_1.c **** ********************************************************************************
1176:Generated_Source\PSoC4/Timer_1.c **** *
1177:Generated_Source\PSoC4/Timer_1.c **** * Summary:
1178:Generated_Source\PSoC4/Timer_1.c **** *  Sets the stop trigger mode. For PWM mode this is the kill input.
1179:Generated_Source\PSoC4/Timer_1.c **** *
1180:Generated_Source\PSoC4/Timer_1.c **** * Parameters:
1181:Generated_Source\PSoC4/Timer_1.c **** *  triggerMode: Enumerated trigger mode value
1182:Generated_Source\PSoC4/Timer_1.c **** *   Values:
1183:Generated_Source\PSoC4/Timer_1.c **** *     - Timer_1_TRIG_LEVEL     - Level
1184:Generated_Source\PSoC4/Timer_1.c **** *     - Timer_1_TRIG_RISING    - Rising edge
1185:Generated_Source\PSoC4/Timer_1.c **** *     - Timer_1_TRIG_FALLING   - Falling edge
1186:Generated_Source\PSoC4/Timer_1.c **** *     - Timer_1_TRIG_BOTH      - Both rising and falling edge
1187:Generated_Source\PSoC4/Timer_1.c **** *
1188:Generated_Source\PSoC4/Timer_1.c **** * Return:
1189:Generated_Source\PSoC4/Timer_1.c **** *  None
1190:Generated_Source\PSoC4/Timer_1.c **** *
1191:Generated_Source\PSoC4/Timer_1.c **** *******************************************************************************/
1192:Generated_Source\PSoC4/Timer_1.c **** void Timer_1_SetStopMode(uint32 triggerMode)
1193:Generated_Source\PSoC4/Timer_1.c **** {
 1513              		.loc 1 1193 0
 1514              		.cfi_startproc
 1515 0000 90B5     		push	{r4, r7, lr}
 1516              		.cfi_def_cfa_offset 12
 1517              		.cfi_offset 4, -12
 1518              		.cfi_offset 7, -8
 1519              		.cfi_offset 14, -4
 1520 0002 85B0     		sub	sp, sp, #20
 1521              		.cfi_def_cfa_offset 32
 1522 0004 00AF     		add	r7, sp, #0
 1523              		.cfi_def_cfa_register 7
 1524 0006 7860     		str	r0, [r7, #4]
1194:Generated_Source\PSoC4/Timer_1.c ****     uint8 enableInterrupts;
1195:Generated_Source\PSoC4/Timer_1.c **** 
1196:Generated_Source\PSoC4/Timer_1.c ****     enableInterrupts = CyEnterCriticalSection();
 1525              		.loc 1 1196 0
 1526 0008 0F23     		mov	r3, #15
 1527 000a FC18     		add	r4, r7, r3
 1528 000c FFF7FEFF 		bl	CyEnterCriticalSection
 1529 0010 031C     		mov	r3, r0
 1530 0012 2370     		strb	r3, [r4]
1197:Generated_Source\PSoC4/Timer_1.c **** 
1198:Generated_Source\PSoC4/Timer_1.c ****     Timer_1_TRIG_CONTROL1_REG &= (uint32)~Timer_1_STOP_MASK;
 1531              		.loc 1 1198 0
 1532 0014 0A4B     		ldr	r3, .L103
 1533 0016 0A4A     		ldr	r2, .L103
 1534 0018 1268     		ldr	r2, [r2]
 1535 001a C021     		mov	r1, #192
 1536 001c 8A43     		bic	r2, r1
 1537 001e 1A60     		str	r2, [r3]
1199:Generated_Source\PSoC4/Timer_1.c ****     Timer_1_TRIG_CONTROL1_REG |= ((uint32)(triggerMode << Timer_1_STOP_SHIFT));
ARM GAS  C:\Users\SHAHIL~1\AppData\Local\Temp\ccJVPaxU.s 			page 49


 1538              		.loc 1 1199 0
 1539 0020 074B     		ldr	r3, .L103
 1540 0022 074A     		ldr	r2, .L103
 1541 0024 1168     		ldr	r1, [r2]
 1542 0026 7A68     		ldr	r2, [r7, #4]
 1543 0028 9201     		lsl	r2, r2, #6
 1544 002a 0A43     		orr	r2, r1
 1545 002c 1A60     		str	r2, [r3]
1200:Generated_Source\PSoC4/Timer_1.c **** 
1201:Generated_Source\PSoC4/Timer_1.c ****     CyExitCriticalSection(enableInterrupts);
 1546              		.loc 1 1201 0
 1547 002e 0F23     		mov	r3, #15
 1548 0030 FB18     		add	r3, r7, r3
 1549 0032 1B78     		ldrb	r3, [r3]
 1550 0034 181C     		mov	r0, r3
 1551 0036 FFF7FEFF 		bl	CyExitCriticalSection
1202:Generated_Source\PSoC4/Timer_1.c **** }
 1552              		.loc 1 1202 0
 1553 003a BD46     		mov	sp, r7
 1554 003c 05B0     		add	sp, sp, #20
 1555              		@ sp needed
 1556 003e 90BD     		pop	{r4, r7, pc}
 1557              	.L104:
 1558              		.align	2
 1559              	.L103:
 1560 0040 24010540 		.word	1074069796
 1561              		.cfi_endproc
 1562              	.LFE31:
 1563              		.size	Timer_1_SetStopMode, .-Timer_1_SetStopMode
 1564              		.section	.text.Timer_1_SetCountMode,"ax",%progbits
 1565              		.align	2
 1566              		.global	Timer_1_SetCountMode
 1567              		.code	16
 1568              		.thumb_func
 1569              		.type	Timer_1_SetCountMode, %function
 1570              	Timer_1_SetCountMode:
 1571              	.LFB32:
1203:Generated_Source\PSoC4/Timer_1.c **** 
1204:Generated_Source\PSoC4/Timer_1.c **** 
1205:Generated_Source\PSoC4/Timer_1.c **** /*******************************************************************************
1206:Generated_Source\PSoC4/Timer_1.c **** * Function Name: Timer_1_SetCountMode
1207:Generated_Source\PSoC4/Timer_1.c **** ********************************************************************************
1208:Generated_Source\PSoC4/Timer_1.c **** *
1209:Generated_Source\PSoC4/Timer_1.c **** * Summary:
1210:Generated_Source\PSoC4/Timer_1.c **** *  Sets the count trigger mode. For Quadrature Decoder mode this is the phiA
1211:Generated_Source\PSoC4/Timer_1.c **** *  input.
1212:Generated_Source\PSoC4/Timer_1.c **** *
1213:Generated_Source\PSoC4/Timer_1.c **** * Parameters:
1214:Generated_Source\PSoC4/Timer_1.c **** *  triggerMode: Enumerated trigger mode value
1215:Generated_Source\PSoC4/Timer_1.c **** *   Values:
1216:Generated_Source\PSoC4/Timer_1.c **** *     - Timer_1_TRIG_LEVEL     - Level
1217:Generated_Source\PSoC4/Timer_1.c **** *     - Timer_1_TRIG_RISING    - Rising edge
1218:Generated_Source\PSoC4/Timer_1.c **** *     - Timer_1_TRIG_FALLING   - Falling edge
1219:Generated_Source\PSoC4/Timer_1.c **** *     - Timer_1_TRIG_BOTH      - Both rising and falling edge
1220:Generated_Source\PSoC4/Timer_1.c **** *
1221:Generated_Source\PSoC4/Timer_1.c **** * Return:
1222:Generated_Source\PSoC4/Timer_1.c **** *  None
ARM GAS  C:\Users\SHAHIL~1\AppData\Local\Temp\ccJVPaxU.s 			page 50


1223:Generated_Source\PSoC4/Timer_1.c **** *
1224:Generated_Source\PSoC4/Timer_1.c **** *******************************************************************************/
1225:Generated_Source\PSoC4/Timer_1.c **** void Timer_1_SetCountMode(uint32 triggerMode)
1226:Generated_Source\PSoC4/Timer_1.c **** {
 1572              		.loc 1 1226 0
 1573              		.cfi_startproc
 1574 0000 90B5     		push	{r4, r7, lr}
 1575              		.cfi_def_cfa_offset 12
 1576              		.cfi_offset 4, -12
 1577              		.cfi_offset 7, -8
 1578              		.cfi_offset 14, -4
 1579 0002 85B0     		sub	sp, sp, #20
 1580              		.cfi_def_cfa_offset 32
 1581 0004 00AF     		add	r7, sp, #0
 1582              		.cfi_def_cfa_register 7
 1583 0006 7860     		str	r0, [r7, #4]
1227:Generated_Source\PSoC4/Timer_1.c ****     uint8 enableInterrupts;
1228:Generated_Source\PSoC4/Timer_1.c **** 
1229:Generated_Source\PSoC4/Timer_1.c ****     enableInterrupts = CyEnterCriticalSection();
 1584              		.loc 1 1229 0
 1585 0008 0F23     		mov	r3, #15
 1586 000a FC18     		add	r4, r7, r3
 1587 000c FFF7FEFF 		bl	CyEnterCriticalSection
 1588 0010 031C     		mov	r3, r0
 1589 0012 2370     		strb	r3, [r4]
1230:Generated_Source\PSoC4/Timer_1.c **** 
1231:Generated_Source\PSoC4/Timer_1.c ****     Timer_1_TRIG_CONTROL1_REG &= (uint32)~Timer_1_COUNT_MASK;
 1590              		.loc 1 1231 0
 1591 0014 0A4B     		ldr	r3, .L106
 1592 0016 0A4A     		ldr	r2, .L106
 1593 0018 1268     		ldr	r2, [r2]
 1594 001a 0C21     		mov	r1, #12
 1595 001c 8A43     		bic	r2, r1
 1596 001e 1A60     		str	r2, [r3]
1232:Generated_Source\PSoC4/Timer_1.c ****     Timer_1_TRIG_CONTROL1_REG |= ((uint32)(triggerMode << Timer_1_COUNT_SHIFT));
 1597              		.loc 1 1232 0
 1598 0020 074B     		ldr	r3, .L106
 1599 0022 074A     		ldr	r2, .L106
 1600 0024 1168     		ldr	r1, [r2]
 1601 0026 7A68     		ldr	r2, [r7, #4]
 1602 0028 9200     		lsl	r2, r2, #2
 1603 002a 0A43     		orr	r2, r1
 1604 002c 1A60     		str	r2, [r3]
1233:Generated_Source\PSoC4/Timer_1.c **** 
1234:Generated_Source\PSoC4/Timer_1.c ****     CyExitCriticalSection(enableInterrupts);
 1605              		.loc 1 1234 0
 1606 002e 0F23     		mov	r3, #15
 1607 0030 FB18     		add	r3, r7, r3
 1608 0032 1B78     		ldrb	r3, [r3]
 1609 0034 181C     		mov	r0, r3
 1610 0036 FFF7FEFF 		bl	CyExitCriticalSection
1235:Generated_Source\PSoC4/Timer_1.c **** }
 1611              		.loc 1 1235 0
 1612 003a BD46     		mov	sp, r7
 1613 003c 05B0     		add	sp, sp, #20
 1614              		@ sp needed
 1615 003e 90BD     		pop	{r4, r7, pc}
ARM GAS  C:\Users\SHAHIL~1\AppData\Local\Temp\ccJVPaxU.s 			page 51


 1616              	.L107:
 1617              		.align	2
 1618              	.L106:
 1619 0040 24010540 		.word	1074069796
 1620              		.cfi_endproc
 1621              	.LFE32:
 1622              		.size	Timer_1_SetCountMode, .-Timer_1_SetCountMode
 1623              		.section	.text.Timer_1_TriggerCommand,"ax",%progbits
 1624              		.align	2
 1625              		.global	Timer_1_TriggerCommand
 1626              		.code	16
 1627              		.thumb_func
 1628              		.type	Timer_1_TriggerCommand, %function
 1629              	Timer_1_TriggerCommand:
 1630              	.LFB33:
1236:Generated_Source\PSoC4/Timer_1.c **** 
1237:Generated_Source\PSoC4/Timer_1.c **** 
1238:Generated_Source\PSoC4/Timer_1.c **** /*******************************************************************************
1239:Generated_Source\PSoC4/Timer_1.c **** * Function Name: Timer_1_TriggerCommand
1240:Generated_Source\PSoC4/Timer_1.c **** ********************************************************************************
1241:Generated_Source\PSoC4/Timer_1.c **** *
1242:Generated_Source\PSoC4/Timer_1.c **** * Summary:
1243:Generated_Source\PSoC4/Timer_1.c **** *  Triggers the designated command to occur on the designated TCPWM instances.
1244:Generated_Source\PSoC4/Timer_1.c **** *  The mask can be used to apply this command simultaneously to more than one
1245:Generated_Source\PSoC4/Timer_1.c **** *  instance.  This allows multiple TCPWM instances to be synchronized.
1246:Generated_Source\PSoC4/Timer_1.c **** *
1247:Generated_Source\PSoC4/Timer_1.c **** * Parameters:
1248:Generated_Source\PSoC4/Timer_1.c **** *  mask: A combination of mask bits for each instance of the TCPWM that the
1249:Generated_Source\PSoC4/Timer_1.c **** *        command should apply to.  This function from one instance can be used
1250:Generated_Source\PSoC4/Timer_1.c **** *        to apply the command to any of the instances in the design.
1251:Generated_Source\PSoC4/Timer_1.c **** *        The mask value for a specific instance is available with the MASK
1252:Generated_Source\PSoC4/Timer_1.c **** *        define.
1253:Generated_Source\PSoC4/Timer_1.c **** *  command: Enumerated command values. Capture command only applicable for
1254:Generated_Source\PSoC4/Timer_1.c **** *           Timer/Counter with Capture and PWM modes.
1255:Generated_Source\PSoC4/Timer_1.c **** *   Values:
1256:Generated_Source\PSoC4/Timer_1.c **** *     - Timer_1_CMD_CAPTURE    - Trigger Capture/Switch command
1257:Generated_Source\PSoC4/Timer_1.c **** *     - Timer_1_CMD_RELOAD     - Trigger Reload/Index command
1258:Generated_Source\PSoC4/Timer_1.c **** *     - Timer_1_CMD_STOP       - Trigger Stop/Kill command
1259:Generated_Source\PSoC4/Timer_1.c **** *     - Timer_1_CMD_START      - Trigger Start/phiB command
1260:Generated_Source\PSoC4/Timer_1.c **** *
1261:Generated_Source\PSoC4/Timer_1.c **** * Return:
1262:Generated_Source\PSoC4/Timer_1.c **** *  None
1263:Generated_Source\PSoC4/Timer_1.c **** *
1264:Generated_Source\PSoC4/Timer_1.c **** *******************************************************************************/
1265:Generated_Source\PSoC4/Timer_1.c **** void Timer_1_TriggerCommand(uint32 mask, uint32 command)
1266:Generated_Source\PSoC4/Timer_1.c **** {
 1631              		.loc 1 1266 0
 1632              		.cfi_startproc
 1633 0000 90B5     		push	{r4, r7, lr}
 1634              		.cfi_def_cfa_offset 12
 1635              		.cfi_offset 4, -12
 1636              		.cfi_offset 7, -8
 1637              		.cfi_offset 14, -4
 1638 0002 85B0     		sub	sp, sp, #20
 1639              		.cfi_def_cfa_offset 32
 1640 0004 00AF     		add	r7, sp, #0
 1641              		.cfi_def_cfa_register 7
ARM GAS  C:\Users\SHAHIL~1\AppData\Local\Temp\ccJVPaxU.s 			page 52


 1642 0006 7860     		str	r0, [r7, #4]
 1643 0008 3960     		str	r1, [r7]
1267:Generated_Source\PSoC4/Timer_1.c ****     uint8 enableInterrupts;
1268:Generated_Source\PSoC4/Timer_1.c **** 
1269:Generated_Source\PSoC4/Timer_1.c ****     enableInterrupts = CyEnterCriticalSection();
 1644              		.loc 1 1269 0
 1645 000a 0F23     		mov	r3, #15
 1646 000c FC18     		add	r4, r7, r3
 1647 000e FFF7FEFF 		bl	CyEnterCriticalSection
 1648 0012 031C     		mov	r3, r0
 1649 0014 2370     		strb	r3, [r4]
1270:Generated_Source\PSoC4/Timer_1.c **** 
1271:Generated_Source\PSoC4/Timer_1.c ****     Timer_1_COMMAND_REG = ((uint32)(mask << command));
 1650              		.loc 1 1271 0
 1651 0016 074B     		ldr	r3, .L109
 1652 0018 3A68     		ldr	r2, [r7]
 1653 001a 7968     		ldr	r1, [r7, #4]
 1654 001c 9140     		lsl	r1, r1, r2
 1655 001e 0A1C     		mov	r2, r1
 1656 0020 1A60     		str	r2, [r3]
1272:Generated_Source\PSoC4/Timer_1.c **** 
1273:Generated_Source\PSoC4/Timer_1.c ****     CyExitCriticalSection(enableInterrupts);
 1657              		.loc 1 1273 0
 1658 0022 0F23     		mov	r3, #15
 1659 0024 FB18     		add	r3, r7, r3
 1660 0026 1B78     		ldrb	r3, [r3]
 1661 0028 181C     		mov	r0, r3
 1662 002a FFF7FEFF 		bl	CyExitCriticalSection
1274:Generated_Source\PSoC4/Timer_1.c **** }
 1663              		.loc 1 1274 0
 1664 002e BD46     		mov	sp, r7
 1665 0030 05B0     		add	sp, sp, #20
 1666              		@ sp needed
 1667 0032 90BD     		pop	{r4, r7, pc}
 1668              	.L110:
 1669              		.align	2
 1670              	.L109:
 1671 0034 08000540 		.word	1074069512
 1672              		.cfi_endproc
 1673              	.LFE33:
 1674              		.size	Timer_1_TriggerCommand, .-Timer_1_TriggerCommand
 1675              		.section	.text.Timer_1_ReadStatus,"ax",%progbits
 1676              		.align	2
 1677              		.global	Timer_1_ReadStatus
 1678              		.code	16
 1679              		.thumb_func
 1680              		.type	Timer_1_ReadStatus, %function
 1681              	Timer_1_ReadStatus:
 1682              	.LFB34:
1275:Generated_Source\PSoC4/Timer_1.c **** 
1276:Generated_Source\PSoC4/Timer_1.c **** 
1277:Generated_Source\PSoC4/Timer_1.c **** /*******************************************************************************
1278:Generated_Source\PSoC4/Timer_1.c **** * Function Name: Timer_1_ReadStatus
1279:Generated_Source\PSoC4/Timer_1.c **** ********************************************************************************
1280:Generated_Source\PSoC4/Timer_1.c **** *
1281:Generated_Source\PSoC4/Timer_1.c **** * Summary:
1282:Generated_Source\PSoC4/Timer_1.c **** *  Reads the status of the Timer_1.
ARM GAS  C:\Users\SHAHIL~1\AppData\Local\Temp\ccJVPaxU.s 			page 53


1283:Generated_Source\PSoC4/Timer_1.c **** *
1284:Generated_Source\PSoC4/Timer_1.c **** * Parameters:
1285:Generated_Source\PSoC4/Timer_1.c **** *  None
1286:Generated_Source\PSoC4/Timer_1.c **** *
1287:Generated_Source\PSoC4/Timer_1.c **** * Return:
1288:Generated_Source\PSoC4/Timer_1.c **** *  Status
1289:Generated_Source\PSoC4/Timer_1.c **** *   Values:
1290:Generated_Source\PSoC4/Timer_1.c **** *     - Timer_1_STATUS_DOWN    - Set if counting down
1291:Generated_Source\PSoC4/Timer_1.c **** *     - Timer_1_STATUS_RUNNING - Set if counter is running
1292:Generated_Source\PSoC4/Timer_1.c **** *
1293:Generated_Source\PSoC4/Timer_1.c **** *******************************************************************************/
1294:Generated_Source\PSoC4/Timer_1.c **** uint32 Timer_1_ReadStatus(void)
1295:Generated_Source\PSoC4/Timer_1.c **** {
 1683              		.loc 1 1295 0
 1684              		.cfi_startproc
 1685 0000 80B5     		push	{r7, lr}
 1686              		.cfi_def_cfa_offset 8
 1687              		.cfi_offset 7, -8
 1688              		.cfi_offset 14, -4
 1689 0002 00AF     		add	r7, sp, #0
 1690              		.cfi_def_cfa_register 7
1296:Generated_Source\PSoC4/Timer_1.c ****     return ((Timer_1_STATUS_REG >> Timer_1_RUNNING_STATUS_SHIFT) |
 1691              		.loc 1 1296 0
 1692 0004 054B     		ldr	r3, .L113
 1693 0006 1B68     		ldr	r3, [r3]
 1694 0008 9A0F     		lsr	r2, r3, #30
1297:Generated_Source\PSoC4/Timer_1.c ****             (Timer_1_STATUS_REG & Timer_1_STATUS_DOWN));
 1695              		.loc 1 1297 0
 1696 000a 044B     		ldr	r3, .L113
 1697 000c 1B68     		ldr	r3, [r3]
 1698 000e 0121     		mov	r1, #1
 1699 0010 0B40     		and	r3, r1
1296:Generated_Source\PSoC4/Timer_1.c ****     return ((Timer_1_STATUS_REG >> Timer_1_RUNNING_STATUS_SHIFT) |
 1700              		.loc 1 1296 0
 1701 0012 1343     		orr	r3, r2
1298:Generated_Source\PSoC4/Timer_1.c **** }
 1702              		.loc 1 1298 0
 1703 0014 181C     		mov	r0, r3
 1704 0016 BD46     		mov	sp, r7
 1705              		@ sp needed
 1706 0018 80BD     		pop	{r7, pc}
 1707              	.L114:
 1708 001a C046     		.align	2
 1709              	.L113:
 1710 001c 04010540 		.word	1074069764
 1711              		.cfi_endproc
 1712              	.LFE34:
 1713              		.size	Timer_1_ReadStatus, .-Timer_1_ReadStatus
 1714              		.section	.text.Timer_1_SetInterruptMode,"ax",%progbits
 1715              		.align	2
 1716              		.global	Timer_1_SetInterruptMode
 1717              		.code	16
 1718              		.thumb_func
 1719              		.type	Timer_1_SetInterruptMode, %function
 1720              	Timer_1_SetInterruptMode:
 1721              	.LFB35:
1299:Generated_Source\PSoC4/Timer_1.c **** 
ARM GAS  C:\Users\SHAHIL~1\AppData\Local\Temp\ccJVPaxU.s 			page 54


1300:Generated_Source\PSoC4/Timer_1.c **** 
1301:Generated_Source\PSoC4/Timer_1.c **** /*******************************************************************************
1302:Generated_Source\PSoC4/Timer_1.c **** * Function Name: Timer_1_SetInterruptMode
1303:Generated_Source\PSoC4/Timer_1.c **** ********************************************************************************
1304:Generated_Source\PSoC4/Timer_1.c **** *
1305:Generated_Source\PSoC4/Timer_1.c **** * Summary:
1306:Generated_Source\PSoC4/Timer_1.c **** *  Sets the interrupt mask to control which interrupt
1307:Generated_Source\PSoC4/Timer_1.c **** *  requests generate the interrupt signal.
1308:Generated_Source\PSoC4/Timer_1.c **** *
1309:Generated_Source\PSoC4/Timer_1.c **** * Parameters:
1310:Generated_Source\PSoC4/Timer_1.c **** *   interruptMask: Mask of bits to be enabled
1311:Generated_Source\PSoC4/Timer_1.c **** *   Values:
1312:Generated_Source\PSoC4/Timer_1.c **** *     - Timer_1_INTR_MASK_TC       - Terminal count mask
1313:Generated_Source\PSoC4/Timer_1.c **** *     - Timer_1_INTR_MASK_CC_MATCH - Compare count / capture mask
1314:Generated_Source\PSoC4/Timer_1.c **** *
1315:Generated_Source\PSoC4/Timer_1.c **** * Return:
1316:Generated_Source\PSoC4/Timer_1.c **** *  None
1317:Generated_Source\PSoC4/Timer_1.c **** *
1318:Generated_Source\PSoC4/Timer_1.c **** *******************************************************************************/
1319:Generated_Source\PSoC4/Timer_1.c **** void Timer_1_SetInterruptMode(uint32 interruptMask)
1320:Generated_Source\PSoC4/Timer_1.c **** {
 1722              		.loc 1 1320 0
 1723              		.cfi_startproc
 1724 0000 80B5     		push	{r7, lr}
 1725              		.cfi_def_cfa_offset 8
 1726              		.cfi_offset 7, -8
 1727              		.cfi_offset 14, -4
 1728 0002 82B0     		sub	sp, sp, #8
 1729              		.cfi_def_cfa_offset 16
 1730 0004 00AF     		add	r7, sp, #0
 1731              		.cfi_def_cfa_register 7
 1732 0006 7860     		str	r0, [r7, #4]
1321:Generated_Source\PSoC4/Timer_1.c ****     Timer_1_INTERRUPT_MASK_REG =  interruptMask;
 1733              		.loc 1 1321 0
 1734 0008 024B     		ldr	r3, .L116
 1735 000a 7A68     		ldr	r2, [r7, #4]
 1736 000c 1A60     		str	r2, [r3]
1322:Generated_Source\PSoC4/Timer_1.c **** }
 1737              		.loc 1 1322 0
 1738 000e BD46     		mov	sp, r7
 1739 0010 02B0     		add	sp, sp, #8
 1740              		@ sp needed
 1741 0012 80BD     		pop	{r7, pc}
 1742              	.L117:
 1743              		.align	2
 1744              	.L116:
 1745 0014 38010540 		.word	1074069816
 1746              		.cfi_endproc
 1747              	.LFE35:
 1748              		.size	Timer_1_SetInterruptMode, .-Timer_1_SetInterruptMode
 1749              		.section	.text.Timer_1_GetInterruptSourceMasked,"ax",%progbits
 1750              		.align	2
 1751              		.global	Timer_1_GetInterruptSourceMasked
 1752              		.code	16
 1753              		.thumb_func
 1754              		.type	Timer_1_GetInterruptSourceMasked, %function
 1755              	Timer_1_GetInterruptSourceMasked:
ARM GAS  C:\Users\SHAHIL~1\AppData\Local\Temp\ccJVPaxU.s 			page 55


 1756              	.LFB36:
1323:Generated_Source\PSoC4/Timer_1.c **** 
1324:Generated_Source\PSoC4/Timer_1.c **** 
1325:Generated_Source\PSoC4/Timer_1.c **** /*******************************************************************************
1326:Generated_Source\PSoC4/Timer_1.c **** * Function Name: Timer_1_GetInterruptSourceMasked
1327:Generated_Source\PSoC4/Timer_1.c **** ********************************************************************************
1328:Generated_Source\PSoC4/Timer_1.c **** *
1329:Generated_Source\PSoC4/Timer_1.c **** * Summary:
1330:Generated_Source\PSoC4/Timer_1.c **** *  Gets the interrupt requests masked by the interrupt mask.
1331:Generated_Source\PSoC4/Timer_1.c **** *
1332:Generated_Source\PSoC4/Timer_1.c **** * Parameters:
1333:Generated_Source\PSoC4/Timer_1.c **** *   None
1334:Generated_Source\PSoC4/Timer_1.c **** *
1335:Generated_Source\PSoC4/Timer_1.c **** * Return:
1336:Generated_Source\PSoC4/Timer_1.c **** *  Masked interrupt source
1337:Generated_Source\PSoC4/Timer_1.c **** *   Values:
1338:Generated_Source\PSoC4/Timer_1.c **** *     - Timer_1_INTR_MASK_TC       - Terminal count mask
1339:Generated_Source\PSoC4/Timer_1.c **** *     - Timer_1_INTR_MASK_CC_MATCH - Compare count / capture mask
1340:Generated_Source\PSoC4/Timer_1.c **** *
1341:Generated_Source\PSoC4/Timer_1.c **** *******************************************************************************/
1342:Generated_Source\PSoC4/Timer_1.c **** uint32 Timer_1_GetInterruptSourceMasked(void)
1343:Generated_Source\PSoC4/Timer_1.c **** {
 1757              		.loc 1 1343 0
 1758              		.cfi_startproc
 1759 0000 80B5     		push	{r7, lr}
 1760              		.cfi_def_cfa_offset 8
 1761              		.cfi_offset 7, -8
 1762              		.cfi_offset 14, -4
 1763 0002 00AF     		add	r7, sp, #0
 1764              		.cfi_def_cfa_register 7
1344:Generated_Source\PSoC4/Timer_1.c ****     return (Timer_1_INTERRUPT_MASKED_REG);
 1765              		.loc 1 1344 0
 1766 0004 024B     		ldr	r3, .L120
 1767 0006 1B68     		ldr	r3, [r3]
1345:Generated_Source\PSoC4/Timer_1.c **** }
 1768              		.loc 1 1345 0
 1769 0008 181C     		mov	r0, r3
 1770 000a BD46     		mov	sp, r7
 1771              		@ sp needed
 1772 000c 80BD     		pop	{r7, pc}
 1773              	.L121:
 1774 000e C046     		.align	2
 1775              	.L120:
 1776 0010 3C010540 		.word	1074069820
 1777              		.cfi_endproc
 1778              	.LFE36:
 1779              		.size	Timer_1_GetInterruptSourceMasked, .-Timer_1_GetInterruptSourceMasked
 1780              		.section	.text.Timer_1_GetInterruptSource,"ax",%progbits
 1781              		.align	2
 1782              		.global	Timer_1_GetInterruptSource
 1783              		.code	16
 1784              		.thumb_func
 1785              		.type	Timer_1_GetInterruptSource, %function
 1786              	Timer_1_GetInterruptSource:
 1787              	.LFB37:
1346:Generated_Source\PSoC4/Timer_1.c **** 
1347:Generated_Source\PSoC4/Timer_1.c **** 
ARM GAS  C:\Users\SHAHIL~1\AppData\Local\Temp\ccJVPaxU.s 			page 56


1348:Generated_Source\PSoC4/Timer_1.c **** /*******************************************************************************
1349:Generated_Source\PSoC4/Timer_1.c **** * Function Name: Timer_1_GetInterruptSource
1350:Generated_Source\PSoC4/Timer_1.c **** ********************************************************************************
1351:Generated_Source\PSoC4/Timer_1.c **** *
1352:Generated_Source\PSoC4/Timer_1.c **** * Summary:
1353:Generated_Source\PSoC4/Timer_1.c **** *  Gets the interrupt requests (without masking).
1354:Generated_Source\PSoC4/Timer_1.c **** *
1355:Generated_Source\PSoC4/Timer_1.c **** * Parameters:
1356:Generated_Source\PSoC4/Timer_1.c **** *  None
1357:Generated_Source\PSoC4/Timer_1.c **** *
1358:Generated_Source\PSoC4/Timer_1.c **** * Return:
1359:Generated_Source\PSoC4/Timer_1.c **** *  Interrupt request value
1360:Generated_Source\PSoC4/Timer_1.c **** *   Values:
1361:Generated_Source\PSoC4/Timer_1.c **** *     - Timer_1_INTR_MASK_TC       - Terminal count mask
1362:Generated_Source\PSoC4/Timer_1.c **** *     - Timer_1_INTR_MASK_CC_MATCH - Compare count / capture mask
1363:Generated_Source\PSoC4/Timer_1.c **** *
1364:Generated_Source\PSoC4/Timer_1.c **** *******************************************************************************/
1365:Generated_Source\PSoC4/Timer_1.c **** uint32 Timer_1_GetInterruptSource(void)
1366:Generated_Source\PSoC4/Timer_1.c **** {
 1788              		.loc 1 1366 0
 1789              		.cfi_startproc
 1790 0000 80B5     		push	{r7, lr}
 1791              		.cfi_def_cfa_offset 8
 1792              		.cfi_offset 7, -8
 1793              		.cfi_offset 14, -4
 1794 0002 00AF     		add	r7, sp, #0
 1795              		.cfi_def_cfa_register 7
1367:Generated_Source\PSoC4/Timer_1.c ****     return (Timer_1_INTERRUPT_REQ_REG);
 1796              		.loc 1 1367 0
 1797 0004 024B     		ldr	r3, .L124
 1798 0006 1B68     		ldr	r3, [r3]
1368:Generated_Source\PSoC4/Timer_1.c **** }
 1799              		.loc 1 1368 0
 1800 0008 181C     		mov	r0, r3
 1801 000a BD46     		mov	sp, r7
 1802              		@ sp needed
 1803 000c 80BD     		pop	{r7, pc}
 1804              	.L125:
 1805 000e C046     		.align	2
 1806              	.L124:
 1807 0010 30010540 		.word	1074069808
 1808              		.cfi_endproc
 1809              	.LFE37:
 1810              		.size	Timer_1_GetInterruptSource, .-Timer_1_GetInterruptSource
 1811              		.section	.text.Timer_1_ClearInterrupt,"ax",%progbits
 1812              		.align	2
 1813              		.global	Timer_1_ClearInterrupt
 1814              		.code	16
 1815              		.thumb_func
 1816              		.type	Timer_1_ClearInterrupt, %function
 1817              	Timer_1_ClearInterrupt:
 1818              	.LFB38:
1369:Generated_Source\PSoC4/Timer_1.c **** 
1370:Generated_Source\PSoC4/Timer_1.c **** 
1371:Generated_Source\PSoC4/Timer_1.c **** /*******************************************************************************
1372:Generated_Source\PSoC4/Timer_1.c **** * Function Name: Timer_1_ClearInterrupt
1373:Generated_Source\PSoC4/Timer_1.c **** ********************************************************************************
ARM GAS  C:\Users\SHAHIL~1\AppData\Local\Temp\ccJVPaxU.s 			page 57


1374:Generated_Source\PSoC4/Timer_1.c **** *
1375:Generated_Source\PSoC4/Timer_1.c **** * Summary:
1376:Generated_Source\PSoC4/Timer_1.c **** *  Clears the interrupt request.
1377:Generated_Source\PSoC4/Timer_1.c **** *
1378:Generated_Source\PSoC4/Timer_1.c **** * Parameters:
1379:Generated_Source\PSoC4/Timer_1.c **** *   interruptMask: Mask of interrupts to clear
1380:Generated_Source\PSoC4/Timer_1.c **** *   Values:
1381:Generated_Source\PSoC4/Timer_1.c **** *     - Timer_1_INTR_MASK_TC       - Terminal count mask
1382:Generated_Source\PSoC4/Timer_1.c **** *     - Timer_1_INTR_MASK_CC_MATCH - Compare count / capture mask
1383:Generated_Source\PSoC4/Timer_1.c **** *
1384:Generated_Source\PSoC4/Timer_1.c **** * Return:
1385:Generated_Source\PSoC4/Timer_1.c **** *  None
1386:Generated_Source\PSoC4/Timer_1.c **** *
1387:Generated_Source\PSoC4/Timer_1.c **** *******************************************************************************/
1388:Generated_Source\PSoC4/Timer_1.c **** void Timer_1_ClearInterrupt(uint32 interruptMask)
1389:Generated_Source\PSoC4/Timer_1.c **** {
 1819              		.loc 1 1389 0
 1820              		.cfi_startproc
 1821 0000 80B5     		push	{r7, lr}
 1822              		.cfi_def_cfa_offset 8
 1823              		.cfi_offset 7, -8
 1824              		.cfi_offset 14, -4
 1825 0002 82B0     		sub	sp, sp, #8
 1826              		.cfi_def_cfa_offset 16
 1827 0004 00AF     		add	r7, sp, #0
 1828              		.cfi_def_cfa_register 7
 1829 0006 7860     		str	r0, [r7, #4]
1390:Generated_Source\PSoC4/Timer_1.c ****     Timer_1_INTERRUPT_REQ_REG = interruptMask;
 1830              		.loc 1 1390 0
 1831 0008 024B     		ldr	r3, .L127
 1832 000a 7A68     		ldr	r2, [r7, #4]
 1833 000c 1A60     		str	r2, [r3]
1391:Generated_Source\PSoC4/Timer_1.c **** }
 1834              		.loc 1 1391 0
 1835 000e BD46     		mov	sp, r7
 1836 0010 02B0     		add	sp, sp, #8
 1837              		@ sp needed
 1838 0012 80BD     		pop	{r7, pc}
 1839              	.L128:
 1840              		.align	2
 1841              	.L127:
 1842 0014 30010540 		.word	1074069808
 1843              		.cfi_endproc
 1844              	.LFE38:
 1845              		.size	Timer_1_ClearInterrupt, .-Timer_1_ClearInterrupt
 1846              		.section	.text.Timer_1_SetInterrupt,"ax",%progbits
 1847              		.align	2
 1848              		.global	Timer_1_SetInterrupt
 1849              		.code	16
 1850              		.thumb_func
 1851              		.type	Timer_1_SetInterrupt, %function
 1852              	Timer_1_SetInterrupt:
 1853              	.LFB39:
1392:Generated_Source\PSoC4/Timer_1.c **** 
1393:Generated_Source\PSoC4/Timer_1.c **** 
1394:Generated_Source\PSoC4/Timer_1.c **** /*******************************************************************************
1395:Generated_Source\PSoC4/Timer_1.c **** * Function Name: Timer_1_SetInterrupt
ARM GAS  C:\Users\SHAHIL~1\AppData\Local\Temp\ccJVPaxU.s 			page 58


1396:Generated_Source\PSoC4/Timer_1.c **** ********************************************************************************
1397:Generated_Source\PSoC4/Timer_1.c **** *
1398:Generated_Source\PSoC4/Timer_1.c **** * Summary:
1399:Generated_Source\PSoC4/Timer_1.c **** *  Sets a software interrupt request.
1400:Generated_Source\PSoC4/Timer_1.c **** *
1401:Generated_Source\PSoC4/Timer_1.c **** * Parameters:
1402:Generated_Source\PSoC4/Timer_1.c **** *   interruptMask: Mask of interrupts to set
1403:Generated_Source\PSoC4/Timer_1.c **** *   Values:
1404:Generated_Source\PSoC4/Timer_1.c **** *     - Timer_1_INTR_MASK_TC       - Terminal count mask
1405:Generated_Source\PSoC4/Timer_1.c **** *     - Timer_1_INTR_MASK_CC_MATCH - Compare count / capture mask
1406:Generated_Source\PSoC4/Timer_1.c **** *
1407:Generated_Source\PSoC4/Timer_1.c **** * Return:
1408:Generated_Source\PSoC4/Timer_1.c **** *  None
1409:Generated_Source\PSoC4/Timer_1.c **** *
1410:Generated_Source\PSoC4/Timer_1.c **** *******************************************************************************/
1411:Generated_Source\PSoC4/Timer_1.c **** void Timer_1_SetInterrupt(uint32 interruptMask)
1412:Generated_Source\PSoC4/Timer_1.c **** {
 1854              		.loc 1 1412 0
 1855              		.cfi_startproc
 1856 0000 80B5     		push	{r7, lr}
 1857              		.cfi_def_cfa_offset 8
 1858              		.cfi_offset 7, -8
 1859              		.cfi_offset 14, -4
 1860 0002 82B0     		sub	sp, sp, #8
 1861              		.cfi_def_cfa_offset 16
 1862 0004 00AF     		add	r7, sp, #0
 1863              		.cfi_def_cfa_register 7
 1864 0006 7860     		str	r0, [r7, #4]
1413:Generated_Source\PSoC4/Timer_1.c ****     Timer_1_INTERRUPT_SET_REG = interruptMask;
 1865              		.loc 1 1413 0
 1866 0008 024B     		ldr	r3, .L130
 1867 000a 7A68     		ldr	r2, [r7, #4]
 1868 000c 1A60     		str	r2, [r3]
1414:Generated_Source\PSoC4/Timer_1.c **** }
 1869              		.loc 1 1414 0
 1870 000e BD46     		mov	sp, r7
 1871 0010 02B0     		add	sp, sp, #8
 1872              		@ sp needed
 1873 0012 80BD     		pop	{r7, pc}
 1874              	.L131:
 1875              		.align	2
 1876              	.L130:
 1877 0014 34010540 		.word	1074069812
 1878              		.cfi_endproc
 1879              	.LFE39:
 1880              		.size	Timer_1_SetInterrupt, .-Timer_1_SetInterrupt
 1881              		.text
 1882              	.Letext0:
 1883              		.file 2 "Generated_Source\\PSoC4\\cytypes.h"