ARM GAS  C:\Users\SHAHIL~1\AppData\Local\Temp\ccvhjtwi.s 			page 1


   1              		.cpu cortex-m0
   2              		.fpu softvfp
   3              		.eabi_attribute 20, 1
   4              		.eabi_attribute 21, 1
   5              		.eabi_attribute 23, 3
   6              		.eabi_attribute 24, 1
   7              		.eabi_attribute 25, 1
   8              		.eabi_attribute 26, 1
   9              		.eabi_attribute 30, 6
  10              		.eabi_attribute 34, 0
  11              		.eabi_attribute 18, 4
  12              		.code	16
  13              		.file	"tinyprintf_printf.c"
  14              		.text
  15              	.Ltext0:
  16              		.cfi_sections	.debug_frame
  17              		.bss
  18              		.align	2
  19              	stdout_putf:
  20 0000 00000000 		.space	4
  21              		.align	2
  22              	stdout_putp:
  23 0004 00000000 		.space	4
  24              		.global	__aeabi_uidiv
  25              		.global	__aeabi_uidivmod
  26              		.section	.text.ui2a,"ax",%progbits
  27              		.align	2
  28              		.code	16
  29              		.thumb_func
  30              		.type	ui2a, %function
  31              	ui2a:
  32              	.LFB0:
  33              		.file 1 "Generated_Source\\PSoC4\\tinyprintf_printf.c"
   1:Generated_Source\PSoC4/tinyprintf_printf.c **** /*
   2:Generated_Source\PSoC4/tinyprintf_printf.c ****  * Copyright (c) 2004,2012 Kustaa Nyholm / SpareTimeLabs
   3:Generated_Source\PSoC4/tinyprintf_printf.c ****  *
   4:Generated_Source\PSoC4/tinyprintf_printf.c ****  * All rights reserved.
   5:Generated_Source\PSoC4/tinyprintf_printf.c ****  *
   6:Generated_Source\PSoC4/tinyprintf_printf.c ****  * Redistribution and use in source and binary forms, with or without modification, 
   7:Generated_Source\PSoC4/tinyprintf_printf.c ****  * are permitted provided that the following conditions are met:
   8:Generated_Source\PSoC4/tinyprintf_printf.c ****  *
   9:Generated_Source\PSoC4/tinyprintf_printf.c ****  * Redistributions of source code must retain the above copyright notice, this list 
  10:Generated_Source\PSoC4/tinyprintf_printf.c ****  * of conditions and the following disclaimer.
  11:Generated_Source\PSoC4/tinyprintf_printf.c ****  * 
  12:Generated_Source\PSoC4/tinyprintf_printf.c ****  * Redistributions in binary form must reproduce the above copyright notice, this 
  13:Generated_Source\PSoC4/tinyprintf_printf.c ****  * list of conditions and the following disclaimer in the documentation and/or other
  14:Generated_Source\PSoC4/tinyprintf_printf.c ****  * materials provided with the distribution.
  15:Generated_Source\PSoC4/tinyprintf_printf.c ****  *  
  16:Generated_Source\PSoC4/tinyprintf_printf.c ****  * Neither the name of the Kustaa Nyholm or SpareTimeLabs nor the names of its 
  17:Generated_Source\PSoC4/tinyprintf_printf.c ****  * contributors may be used to endorse or promote products derived from this software 
  18:Generated_Source\PSoC4/tinyprintf_printf.c ****  * without specific prior written permission.
  19:Generated_Source\PSoC4/tinyprintf_printf.c ****  * 
  20:Generated_Source\PSoC4/tinyprintf_printf.c ****  * THIS SOFTWARE IS PROVIDED BY THE COPYRIGHT HOLDERS AND CONTRIBUTORS "AS IS" 
  21:Generated_Source\PSoC4/tinyprintf_printf.c ****  * AND ANY EXPRESS OR IMPLIED WARRANTIES, INCLUDING, BUT NOT LIMITED TO, THE IMPLIED 
  22:Generated_Source\PSoC4/tinyprintf_printf.c ****  * WARRANTIES OF MERCHANTABILITY AND FITNESS FOR A PARTICULAR PURPOSE ARE DISCLAIMED. 
  23:Generated_Source\PSoC4/tinyprintf_printf.c ****  * IN NO EVENT SHALL THE COPYRIGHT HOLDER OR CONTRIBUTORS BE LIABLE FOR ANY DIRECT, 
  24:Generated_Source\PSoC4/tinyprintf_printf.c ****  * INDIRECT, INCIDENTAL, SPECIAL, EXEMPLARY, OR CONSEQUENTIAL DAMAGES (INCLUDING, BUT 
ARM GAS  C:\Users\SHAHIL~1\AppData\Local\Temp\ccvhjtwi.s 			page 2


  25:Generated_Source\PSoC4/tinyprintf_printf.c ****  * NOT LIMITED TO, PROCUREMENT OF SUBSTITUTE GOODS OR SERVICES; LOSS OF USE, DATA, 
  26:Generated_Source\PSoC4/tinyprintf_printf.c ****  * OR PROFITS; OR BUSINESS INTERRUPTION) HOWEVER CAUSED AND ON ANY THEORY OF LIABILITY, 
  27:Generated_Source\PSoC4/tinyprintf_printf.c ****  * WHETHER IN CONTRACT, STRICT LIABILITY, OR TORT (INCLUDING NEGLIGENCE OR OTHERWISE) 
  28:Generated_Source\PSoC4/tinyprintf_printf.c ****  * ARISING IN ANY WAY OUT OF THE USE OF THIS SOFTWARE, EVEN IF ADVISED OF THE POSSIBILITY
  29:Generated_Source\PSoC4/tinyprintf_printf.c ****  * OF SUCH DAMAGE.
  30:Generated_Source\PSoC4/tinyprintf_printf.c ****  */
  31:Generated_Source\PSoC4/tinyprintf_printf.c **** 
  32:Generated_Source\PSoC4/tinyprintf_printf.c **** #include "tinyprintf_printf.h"
  33:Generated_Source\PSoC4/tinyprintf_printf.c **** 
  34:Generated_Source\PSoC4/tinyprintf_printf.c **** typedef void (*putcf) (void*,char);
  35:Generated_Source\PSoC4/tinyprintf_printf.c **** static putcf stdout_putf;
  36:Generated_Source\PSoC4/tinyprintf_printf.c **** static void* stdout_putp;
  37:Generated_Source\PSoC4/tinyprintf_printf.c **** 
  38:Generated_Source\PSoC4/tinyprintf_printf.c **** 
  39:Generated_Source\PSoC4/tinyprintf_printf.c **** #ifdef PRINTF_LONG_SUPPORT
  40:Generated_Source\PSoC4/tinyprintf_printf.c **** 
  41:Generated_Source\PSoC4/tinyprintf_printf.c **** static void uli2a(unsigned long int num, unsigned int base, int uc,char * bf)
  42:Generated_Source\PSoC4/tinyprintf_printf.c **** 	{
  43:Generated_Source\PSoC4/tinyprintf_printf.c **** 	int n=0;
  44:Generated_Source\PSoC4/tinyprintf_printf.c **** 	unsigned int d=1;
  45:Generated_Source\PSoC4/tinyprintf_printf.c **** 	while (num/d >= base)
  46:Generated_Source\PSoC4/tinyprintf_printf.c **** 		d*=base;		 
  47:Generated_Source\PSoC4/tinyprintf_printf.c **** 	while (d!=0) {
  48:Generated_Source\PSoC4/tinyprintf_printf.c **** 		int dgt = num / d;
  49:Generated_Source\PSoC4/tinyprintf_printf.c **** 		num%=d;
  50:Generated_Source\PSoC4/tinyprintf_printf.c **** 		d/=base;
  51:Generated_Source\PSoC4/tinyprintf_printf.c **** 		if (n || dgt>0|| d==0) {
  52:Generated_Source\PSoC4/tinyprintf_printf.c **** 			*bf++ = dgt+(dgt<10 ? '0' : (uc ? 'A' : 'a')-10);
  53:Generated_Source\PSoC4/tinyprintf_printf.c **** 			++n;
  54:Generated_Source\PSoC4/tinyprintf_printf.c **** 			}
  55:Generated_Source\PSoC4/tinyprintf_printf.c **** 		}
  56:Generated_Source\PSoC4/tinyprintf_printf.c **** 	*bf=0;
  57:Generated_Source\PSoC4/tinyprintf_printf.c **** 	}
  58:Generated_Source\PSoC4/tinyprintf_printf.c **** 
  59:Generated_Source\PSoC4/tinyprintf_printf.c **** static void li2a (long num, char * bf)
  60:Generated_Source\PSoC4/tinyprintf_printf.c **** 	{
  61:Generated_Source\PSoC4/tinyprintf_printf.c **** 	if (num<0) {
  62:Generated_Source\PSoC4/tinyprintf_printf.c **** 		num=-num;
  63:Generated_Source\PSoC4/tinyprintf_printf.c **** 		*bf++ = '-';
  64:Generated_Source\PSoC4/tinyprintf_printf.c **** 		}
  65:Generated_Source\PSoC4/tinyprintf_printf.c **** 	uli2a(num,10,0,bf);
  66:Generated_Source\PSoC4/tinyprintf_printf.c **** 	}
  67:Generated_Source\PSoC4/tinyprintf_printf.c **** 
  68:Generated_Source\PSoC4/tinyprintf_printf.c **** #endif
  69:Generated_Source\PSoC4/tinyprintf_printf.c **** 
  70:Generated_Source\PSoC4/tinyprintf_printf.c **** static void ui2a(unsigned int num, unsigned int base, int uc,char * bf)
  71:Generated_Source\PSoC4/tinyprintf_printf.c **** 	{
  34              		.loc 1 71 0
  35              		.cfi_startproc
  36 0000 80B5     		push	{r7, lr}
  37              		.cfi_def_cfa_offset 8
  38              		.cfi_offset 7, -8
  39              		.cfi_offset 14, -4
  40 0002 88B0     		sub	sp, sp, #32
  41              		.cfi_def_cfa_offset 40
  42 0004 00AF     		add	r7, sp, #0
  43              		.cfi_def_cfa_register 7
ARM GAS  C:\Users\SHAHIL~1\AppData\Local\Temp\ccvhjtwi.s 			page 3


  44 0006 F860     		str	r0, [r7, #12]
  45 0008 B960     		str	r1, [r7, #8]
  46 000a 7A60     		str	r2, [r7, #4]
  47 000c 3B60     		str	r3, [r7]
  72:Generated_Source\PSoC4/tinyprintf_printf.c **** 	int n=0;
  48              		.loc 1 72 0
  49 000e 0023     		mov	r3, #0
  50 0010 FB61     		str	r3, [r7, #28]
  73:Generated_Source\PSoC4/tinyprintf_printf.c **** 	unsigned int d=1;
  51              		.loc 1 73 0
  52 0012 0123     		mov	r3, #1
  53 0014 BB61     		str	r3, [r7, #24]
  74:Generated_Source\PSoC4/tinyprintf_printf.c **** 	while (num/d >= base)
  54              		.loc 1 74 0
  55 0016 03E0     		b	.L2
  56              	.L3:
  75:Generated_Source\PSoC4/tinyprintf_printf.c **** 		d*=base;		
  57              		.loc 1 75 0
  58 0018 BB69     		ldr	r3, [r7, #24]
  59 001a BA68     		ldr	r2, [r7, #8]
  60 001c 5343     		mul	r3, r2
  61 001e BB61     		str	r3, [r7, #24]
  62              	.L2:
  74:Generated_Source\PSoC4/tinyprintf_printf.c **** 	while (num/d >= base)
  63              		.loc 1 74 0
  64 0020 F868     		ldr	r0, [r7, #12]
  65 0022 B969     		ldr	r1, [r7, #24]
  66 0024 FFF7FEFF 		bl	__aeabi_uidiv
  67 0028 031C     		mov	r3, r0
  68 002a 1A1E     		sub	r2, r3, #0
  69 002c BB68     		ldr	r3, [r7, #8]
  70 002e 9A42     		cmp	r2, r3
  71 0030 F2D2     		bcs	.L3
  76:Generated_Source\PSoC4/tinyprintf_printf.c **** 	while (d!=0) {
  72              		.loc 1 76 0
  73 0032 31E0     		b	.L4
  74              	.L10:
  75              	.LBB2:
  77:Generated_Source\PSoC4/tinyprintf_printf.c **** 		int dgt = num / d;
  76              		.loc 1 77 0
  77 0034 F868     		ldr	r0, [r7, #12]
  78 0036 B969     		ldr	r1, [r7, #24]
  79 0038 FFF7FEFF 		bl	__aeabi_uidiv
  80 003c 031C     		mov	r3, r0
  81 003e 7B61     		str	r3, [r7, #20]
  78:Generated_Source\PSoC4/tinyprintf_printf.c **** 		num%= d;
  82              		.loc 1 78 0
  83 0040 FB68     		ldr	r3, [r7, #12]
  84 0042 181C     		mov	r0, r3
  85 0044 B969     		ldr	r1, [r7, #24]
  86 0046 FFF7FEFF 		bl	__aeabi_uidivmod
  87 004a 0B1C     		mov	r3, r1
  88 004c FB60     		str	r3, [r7, #12]
  79:Generated_Source\PSoC4/tinyprintf_printf.c **** 		d/=base;
  89              		.loc 1 79 0
  90 004e B869     		ldr	r0, [r7, #24]
  91 0050 B968     		ldr	r1, [r7, #8]
ARM GAS  C:\Users\SHAHIL~1\AppData\Local\Temp\ccvhjtwi.s 			page 4


  92 0052 FFF7FEFF 		bl	__aeabi_uidiv
  93 0056 031C     		mov	r3, r0
  94 0058 BB61     		str	r3, [r7, #24]
  80:Generated_Source\PSoC4/tinyprintf_printf.c **** 		if (n || dgt>0 || d==0) {
  95              		.loc 1 80 0
  96 005a FB69     		ldr	r3, [r7, #28]
  97 005c 002B     		cmp	r3, #0
  98 005e 05D1     		bne	.L5
  99              		.loc 1 80 0 is_stmt 0 discriminator 1
 100 0060 7B69     		ldr	r3, [r7, #20]
 101 0062 002B     		cmp	r3, #0
 102 0064 02DC     		bgt	.L5
 103              		.loc 1 80 0 discriminator 2
 104 0066 BB69     		ldr	r3, [r7, #24]
 105 0068 002B     		cmp	r3, #0
 106 006a 15D1     		bne	.L4
 107              	.L5:
  81:Generated_Source\PSoC4/tinyprintf_printf.c **** 			*bf++ = dgt+(dgt<10 ? '0' : (uc ? 'A' : 'a')-10);
 108              		.loc 1 81 0 is_stmt 1
 109 006c 3A68     		ldr	r2, [r7]
 110 006e 531C     		add	r3, r2, #1
 111 0070 3B60     		str	r3, [r7]
 112 0072 7B69     		ldr	r3, [r7, #20]
 113 0074 092B     		cmp	r3, #9
 114 0076 06DD     		ble	.L6
 115              		.loc 1 81 0 is_stmt 0 discriminator 1
 116 0078 7B68     		ldr	r3, [r7, #4]
 117 007a 002B     		cmp	r3, #0
 118 007c 01D0     		beq	.L7
 119              		.loc 1 81 0 discriminator 3
 120 007e 3723     		mov	r3, #55
 121 0080 02E0     		b	.L9
 122              	.L7:
 123              		.loc 1 81 0 discriminator 4
 124 0082 5723     		mov	r3, #87
 125 0084 00E0     		b	.L9
 126              	.L6:
 127              		.loc 1 81 0 discriminator 2
 128 0086 3023     		mov	r3, #48
 129              	.L9:
 130              		.loc 1 81 0 discriminator 8
 131 0088 7969     		ldr	r1, [r7, #20]
 132 008a C9B2     		uxtb	r1, r1
 133 008c 5B18     		add	r3, r3, r1
 134 008e DBB2     		uxtb	r3, r3
 135 0090 1370     		strb	r3, [r2]
  82:Generated_Source\PSoC4/tinyprintf_printf.c **** 			++n;
 136              		.loc 1 82 0 is_stmt 1 discriminator 8
 137 0092 FB69     		ldr	r3, [r7, #28]
 138 0094 0133     		add	r3, r3, #1
 139 0096 FB61     		str	r3, [r7, #28]
 140              	.L4:
 141              	.LBE2:
  76:Generated_Source\PSoC4/tinyprintf_printf.c **** 		int dgt = num / d;
 142              		.loc 1 76 0
 143 0098 BB69     		ldr	r3, [r7, #24]
 144 009a 002B     		cmp	r3, #0
ARM GAS  C:\Users\SHAHIL~1\AppData\Local\Temp\ccvhjtwi.s 			page 5


 145 009c CAD1     		bne	.L10
  83:Generated_Source\PSoC4/tinyprintf_printf.c **** 			}
  84:Generated_Source\PSoC4/tinyprintf_printf.c **** 		}
  85:Generated_Source\PSoC4/tinyprintf_printf.c **** 	*bf=0;
 146              		.loc 1 85 0
 147 009e 3B68     		ldr	r3, [r7]
 148 00a0 0022     		mov	r2, #0
 149 00a2 1A70     		strb	r2, [r3]
  86:Generated_Source\PSoC4/tinyprintf_printf.c **** 	}
 150              		.loc 1 86 0
 151 00a4 BD46     		mov	sp, r7
 152 00a6 08B0     		add	sp, sp, #32
 153              		@ sp needed
 154 00a8 80BD     		pop	{r7, pc}
 155              		.cfi_endproc
 156              	.LFE0:
 157              		.size	ui2a, .-ui2a
 158 00aa C046     		.section	.text.i2a,"ax",%progbits
 159              		.align	2
 160              		.code	16
 161              		.thumb_func
 162              		.type	i2a, %function
 163              	i2a:
 164              	.LFB1:
  87:Generated_Source\PSoC4/tinyprintf_printf.c **** 
  88:Generated_Source\PSoC4/tinyprintf_printf.c **** static void i2a (int num, char * bf)
  89:Generated_Source\PSoC4/tinyprintf_printf.c **** 	{
 165              		.loc 1 89 0
 166              		.cfi_startproc
 167 0000 80B5     		push	{r7, lr}
 168              		.cfi_def_cfa_offset 8
 169              		.cfi_offset 7, -8
 170              		.cfi_offset 14, -4
 171 0002 82B0     		sub	sp, sp, #8
 172              		.cfi_def_cfa_offset 16
 173 0004 00AF     		add	r7, sp, #0
 174              		.cfi_def_cfa_register 7
 175 0006 7860     		str	r0, [r7, #4]
 176 0008 3960     		str	r1, [r7]
  90:Generated_Source\PSoC4/tinyprintf_printf.c **** 	if (num<0) {
 177              		.loc 1 90 0
 178 000a 7B68     		ldr	r3, [r7, #4]
 179 000c 002B     		cmp	r3, #0
 180 000e 07DA     		bge	.L12
  91:Generated_Source\PSoC4/tinyprintf_printf.c **** 		num=-num;
 181              		.loc 1 91 0
 182 0010 7B68     		ldr	r3, [r7, #4]
 183 0012 5B42     		neg	r3, r3
 184 0014 7B60     		str	r3, [r7, #4]
  92:Generated_Source\PSoC4/tinyprintf_printf.c **** 		*bf++ = '-';
 185              		.loc 1 92 0
 186 0016 3B68     		ldr	r3, [r7]
 187 0018 5A1C     		add	r2, r3, #1
 188 001a 3A60     		str	r2, [r7]
 189 001c 2D22     		mov	r2, #45
 190 001e 1A70     		strb	r2, [r3]
 191              	.L12:
ARM GAS  C:\Users\SHAHIL~1\AppData\Local\Temp\ccvhjtwi.s 			page 6


  93:Generated_Source\PSoC4/tinyprintf_printf.c **** 		}
  94:Generated_Source\PSoC4/tinyprintf_printf.c **** 	ui2a(num,10,0,bf);
 192              		.loc 1 94 0
 193 0020 7A68     		ldr	r2, [r7, #4]
 194 0022 3B68     		ldr	r3, [r7]
 195 0024 101C     		mov	r0, r2
 196 0026 0A21     		mov	r1, #10
 197 0028 0022     		mov	r2, #0
 198 002a FFF7FEFF 		bl	ui2a
  95:Generated_Source\PSoC4/tinyprintf_printf.c **** 	}
 199              		.loc 1 95 0
 200 002e BD46     		mov	sp, r7
 201 0030 02B0     		add	sp, sp, #8
 202              		@ sp needed
 203 0032 80BD     		pop	{r7, pc}
 204              		.cfi_endproc
 205              	.LFE1:
 206              		.size	i2a, .-i2a
 207              		.section	.text.a2d,"ax",%progbits
 208              		.align	2
 209              		.code	16
 210              		.thumb_func
 211              		.type	a2d, %function
 212              	a2d:
 213              	.LFB2:
  96:Generated_Source\PSoC4/tinyprintf_printf.c **** 
  97:Generated_Source\PSoC4/tinyprintf_printf.c **** static int a2d(char ch)
  98:Generated_Source\PSoC4/tinyprintf_printf.c **** 	{
 214              		.loc 1 98 0
 215              		.cfi_startproc
 216 0000 80B5     		push	{r7, lr}
 217              		.cfi_def_cfa_offset 8
 218              		.cfi_offset 7, -8
 219              		.cfi_offset 14, -4
 220 0002 82B0     		sub	sp, sp, #8
 221              		.cfi_def_cfa_offset 16
 222 0004 00AF     		add	r7, sp, #0
 223              		.cfi_def_cfa_register 7
 224 0006 021C     		mov	r2, r0
 225 0008 FB1D     		add	r3, r7, #7
 226 000a 1A70     		strb	r2, [r3]
  99:Generated_Source\PSoC4/tinyprintf_printf.c **** 	if (ch>='0' && ch<='9') 
 227              		.loc 1 99 0
 228 000c FB1D     		add	r3, r7, #7
 229 000e 1B78     		ldrb	r3, [r3]
 230 0010 2F2B     		cmp	r3, #47
 231 0012 07D9     		bls	.L14
 232              		.loc 1 99 0 is_stmt 0 discriminator 1
 233 0014 FB1D     		add	r3, r7, #7
 234 0016 1B78     		ldrb	r3, [r3]
 235 0018 392B     		cmp	r3, #57
 236 001a 03D8     		bhi	.L14
 100:Generated_Source\PSoC4/tinyprintf_printf.c **** 		return ch-'0';
 237              		.loc 1 100 0 is_stmt 1
 238 001c FB1D     		add	r3, r7, #7
 239 001e 1B78     		ldrb	r3, [r3]
 240 0020 303B     		sub	r3, r3, #48
ARM GAS  C:\Users\SHAHIL~1\AppData\Local\Temp\ccvhjtwi.s 			page 7


 241 0022 19E0     		b	.L15
 242              	.L14:
 101:Generated_Source\PSoC4/tinyprintf_printf.c **** 	else if (ch>='a' && ch<='f')
 243              		.loc 1 101 0
 244 0024 FB1D     		add	r3, r7, #7
 245 0026 1B78     		ldrb	r3, [r3]
 246 0028 602B     		cmp	r3, #96
 247 002a 07D9     		bls	.L16
 248              		.loc 1 101 0 is_stmt 0 discriminator 1
 249 002c FB1D     		add	r3, r7, #7
 250 002e 1B78     		ldrb	r3, [r3]
 251 0030 662B     		cmp	r3, #102
 252 0032 03D8     		bhi	.L16
 102:Generated_Source\PSoC4/tinyprintf_printf.c **** 		return ch-'a'+10;
 253              		.loc 1 102 0 is_stmt 1
 254 0034 FB1D     		add	r3, r7, #7
 255 0036 1B78     		ldrb	r3, [r3]
 256 0038 573B     		sub	r3, r3, #87
 257 003a 0DE0     		b	.L15
 258              	.L16:
 103:Generated_Source\PSoC4/tinyprintf_printf.c **** 	else if (ch>='A' && ch<='F')
 259              		.loc 1 103 0
 260 003c FB1D     		add	r3, r7, #7
 261 003e 1B78     		ldrb	r3, [r3]
 262 0040 402B     		cmp	r3, #64
 263 0042 07D9     		bls	.L17
 264              		.loc 1 103 0 is_stmt 0 discriminator 1
 265 0044 FB1D     		add	r3, r7, #7
 266 0046 1B78     		ldrb	r3, [r3]
 267 0048 462B     		cmp	r3, #70
 268 004a 03D8     		bhi	.L17
 104:Generated_Source\PSoC4/tinyprintf_printf.c **** 		return ch-'A'+10;
 269              		.loc 1 104 0 is_stmt 1
 270 004c FB1D     		add	r3, r7, #7
 271 004e 1B78     		ldrb	r3, [r3]
 272 0050 373B     		sub	r3, r3, #55
 273 0052 01E0     		b	.L15
 274              	.L17:
 105:Generated_Source\PSoC4/tinyprintf_printf.c **** 	else return -1;
 275              		.loc 1 105 0
 276 0054 0123     		mov	r3, #1
 277 0056 5B42     		neg	r3, r3
 278              	.L15:
 106:Generated_Source\PSoC4/tinyprintf_printf.c **** 	}
 279              		.loc 1 106 0
 280 0058 181C     		mov	r0, r3
 281 005a BD46     		mov	sp, r7
 282 005c 02B0     		add	sp, sp, #8
 283              		@ sp needed
 284 005e 80BD     		pop	{r7, pc}
 285              		.cfi_endproc
 286              	.LFE2:
 287              		.size	a2d, .-a2d
 288              		.section	.text.a2i,"ax",%progbits
 289              		.align	2
 290              		.code	16
 291              		.thumb_func
ARM GAS  C:\Users\SHAHIL~1\AppData\Local\Temp\ccvhjtwi.s 			page 8


 292              		.type	a2i, %function
 293              	a2i:
 294              	.LFB3:
 107:Generated_Source\PSoC4/tinyprintf_printf.c **** 
 108:Generated_Source\PSoC4/tinyprintf_printf.c **** static char a2i(char ch, char** src,int base,int* nump)
 109:Generated_Source\PSoC4/tinyprintf_printf.c **** 	{
 295              		.loc 1 109 0
 296              		.cfi_startproc
 297 0000 80B5     		push	{r7, lr}
 298              		.cfi_def_cfa_offset 8
 299              		.cfi_offset 7, -8
 300              		.cfi_offset 14, -4
 301 0002 88B0     		sub	sp, sp, #32
 302              		.cfi_def_cfa_offset 40
 303 0004 00AF     		add	r7, sp, #0
 304              		.cfi_def_cfa_register 7
 305 0006 B960     		str	r1, [r7, #8]
 306 0008 7A60     		str	r2, [r7, #4]
 307 000a 3B60     		str	r3, [r7]
 308 000c 0F23     		mov	r3, #15
 309 000e FB18     		add	r3, r7, r3
 310 0010 021C     		add	r2, r0, #0
 311 0012 1A70     		strb	r2, [r3]
 110:Generated_Source\PSoC4/tinyprintf_printf.c **** 	char* p= *src;
 312              		.loc 1 110 0
 313 0014 BB68     		ldr	r3, [r7, #8]
 314 0016 1B68     		ldr	r3, [r3]
 315 0018 FB61     		str	r3, [r7, #28]
 111:Generated_Source\PSoC4/tinyprintf_printf.c **** 	int num=0;
 316              		.loc 1 111 0
 317 001a 0023     		mov	r3, #0
 318 001c BB61     		str	r3, [r7, #24]
 112:Generated_Source\PSoC4/tinyprintf_printf.c **** 	int digit;
 113:Generated_Source\PSoC4/tinyprintf_printf.c **** 	while ((digit=a2d(ch))>=0) {
 319              		.loc 1 113 0
 320 001e 11E0     		b	.L19
 321              	.L22:
 114:Generated_Source\PSoC4/tinyprintf_printf.c **** 		if (digit>base) break;
 322              		.loc 1 114 0
 323 0020 7A69     		ldr	r2, [r7, #20]
 324 0022 7B68     		ldr	r3, [r7, #4]
 325 0024 9A42     		cmp	r2, r3
 326 0026 00DD     		ble	.L20
 327 0028 17E0     		b	.L21
 328              	.L20:
 115:Generated_Source\PSoC4/tinyprintf_printf.c **** 		num=num*base+digit;
 329              		.loc 1 115 0
 330 002a BB69     		ldr	r3, [r7, #24]
 331 002c 7A68     		ldr	r2, [r7, #4]
 332 002e 5A43     		mul	r2, r3
 333 0030 7B69     		ldr	r3, [r7, #20]
 334 0032 D318     		add	r3, r2, r3
 335 0034 BB61     		str	r3, [r7, #24]
 116:Generated_Source\PSoC4/tinyprintf_printf.c **** 		ch=*p++;
 336              		.loc 1 116 0
 337 0036 FB69     		ldr	r3, [r7, #28]
 338 0038 5A1C     		add	r2, r3, #1
ARM GAS  C:\Users\SHAHIL~1\AppData\Local\Temp\ccvhjtwi.s 			page 9


 339 003a FA61     		str	r2, [r7, #28]
 340 003c 0F22     		mov	r2, #15
 341 003e BA18     		add	r2, r7, r2
 342 0040 1B78     		ldrb	r3, [r3]
 343 0042 1370     		strb	r3, [r2]
 344              	.L19:
 113:Generated_Source\PSoC4/tinyprintf_printf.c **** 		if (digit>base) break;
 345              		.loc 1 113 0
 346 0044 0F23     		mov	r3, #15
 347 0046 FB18     		add	r3, r7, r3
 348 0048 1B78     		ldrb	r3, [r3]
 349 004a 181C     		mov	r0, r3
 350 004c FFF7FEFF 		bl	a2d
 351 0050 031C     		mov	r3, r0
 352 0052 7B61     		str	r3, [r7, #20]
 353 0054 7B69     		ldr	r3, [r7, #20]
 354 0056 002B     		cmp	r3, #0
 355 0058 E2DA     		bge	.L22
 356              	.L21:
 117:Generated_Source\PSoC4/tinyprintf_printf.c **** 		}
 118:Generated_Source\PSoC4/tinyprintf_printf.c **** 	*src=p;
 357              		.loc 1 118 0
 358 005a BB68     		ldr	r3, [r7, #8]
 359 005c FA69     		ldr	r2, [r7, #28]
 360 005e 1A60     		str	r2, [r3]
 119:Generated_Source\PSoC4/tinyprintf_printf.c **** 	*nump=num;
 361              		.loc 1 119 0
 362 0060 3B68     		ldr	r3, [r7]
 363 0062 BA69     		ldr	r2, [r7, #24]
 364 0064 1A60     		str	r2, [r3]
 120:Generated_Source\PSoC4/tinyprintf_printf.c **** 	return ch;
 365              		.loc 1 120 0
 366 0066 0F23     		mov	r3, #15
 367 0068 FB18     		add	r3, r7, r3
 368 006a 1B78     		ldrb	r3, [r3]
 121:Generated_Source\PSoC4/tinyprintf_printf.c **** 	}
 369              		.loc 1 121 0
 370 006c 181C     		mov	r0, r3
 371 006e BD46     		mov	sp, r7
 372 0070 08B0     		add	sp, sp, #32
 373              		@ sp needed
 374 0072 80BD     		pop	{r7, pc}
 375              		.cfi_endproc
 376              	.LFE3:
 377              		.size	a2i, .-a2i
 378              		.section	.text.putchw,"ax",%progbits
 379              		.align	2
 380              		.code	16
 381              		.thumb_func
 382              		.type	putchw, %function
 383              	putchw:
 384              	.LFB4:
 122:Generated_Source\PSoC4/tinyprintf_printf.c **** 
 123:Generated_Source\PSoC4/tinyprintf_printf.c **** static void putchw(void* putp,putcf putf,int n, char z, char* bf)
 124:Generated_Source\PSoC4/tinyprintf_printf.c **** 	{
 385              		.loc 1 124 0
 386              		.cfi_startproc
ARM GAS  C:\Users\SHAHIL~1\AppData\Local\Temp\ccvhjtwi.s 			page 10


 387 0000 80B5     		push	{r7, lr}
 388              		.cfi_def_cfa_offset 8
 389              		.cfi_offset 7, -8
 390              		.cfi_offset 14, -4
 391 0002 86B0     		sub	sp, sp, #24
 392              		.cfi_def_cfa_offset 32
 393 0004 00AF     		add	r7, sp, #0
 394              		.cfi_def_cfa_register 7
 395 0006 F860     		str	r0, [r7, #12]
 396 0008 B960     		str	r1, [r7, #8]
 397 000a 7A60     		str	r2, [r7, #4]
 398 000c 1A1C     		mov	r2, r3
 399 000e FB1C     		add	r3, r7, #3
 400 0010 1A70     		strb	r2, [r3]
 125:Generated_Source\PSoC4/tinyprintf_printf.c **** 	char fc=z? '0' : ' ';
 401              		.loc 1 125 0
 402 0012 FB1C     		add	r3, r7, #3
 403 0014 1B78     		ldrb	r3, [r3]
 404 0016 002B     		cmp	r3, #0
 405 0018 01D0     		beq	.L25
 406              		.loc 1 125 0 is_stmt 0 discriminator 1
 407 001a 3022     		mov	r2, #48
 408 001c 00E0     		b	.L26
 409              	.L25:
 410              		.loc 1 125 0 discriminator 2
 411 001e 2022     		mov	r2, #32
 412              	.L26:
 413              		.loc 1 125 0 discriminator 4
 414 0020 1323     		mov	r3, #19
 415 0022 FB18     		add	r3, r7, r3
 416 0024 1A70     		strb	r2, [r3]
 126:Generated_Source\PSoC4/tinyprintf_printf.c **** 	char ch;
 127:Generated_Source\PSoC4/tinyprintf_printf.c **** 	char* p=bf;
 417              		.loc 1 127 0 is_stmt 1 discriminator 4
 418 0026 3B6A     		ldr	r3, [r7, #32]
 419 0028 7B61     		str	r3, [r7, #20]
 128:Generated_Source\PSoC4/tinyprintf_printf.c **** 	while (*p++ && n > 0)
 420              		.loc 1 128 0 discriminator 4
 421 002a 02E0     		b	.L27
 422              	.L29:
 129:Generated_Source\PSoC4/tinyprintf_printf.c **** 		n--;
 423              		.loc 1 129 0
 424 002c 7B68     		ldr	r3, [r7, #4]
 425 002e 013B     		sub	r3, r3, #1
 426 0030 7B60     		str	r3, [r7, #4]
 427              	.L27:
 128:Generated_Source\PSoC4/tinyprintf_printf.c **** 	while (*p++ && n > 0)
 428              		.loc 1 128 0
 429 0032 7B69     		ldr	r3, [r7, #20]
 430 0034 5A1C     		add	r2, r3, #1
 431 0036 7A61     		str	r2, [r7, #20]
 432 0038 1B78     		ldrb	r3, [r3]
 433 003a 002B     		cmp	r3, #0
 434 003c 02D0     		beq	.L28
 128:Generated_Source\PSoC4/tinyprintf_printf.c **** 	while (*p++ && n > 0)
 435              		.loc 1 128 0 is_stmt 0 discriminator 1
 436 003e 7B68     		ldr	r3, [r7, #4]
ARM GAS  C:\Users\SHAHIL~1\AppData\Local\Temp\ccvhjtwi.s 			page 11


 437 0040 002B     		cmp	r3, #0
 438 0042 F3DC     		bgt	.L29
 439              	.L28:
 130:Generated_Source\PSoC4/tinyprintf_printf.c **** 	while (n-- > 0) 
 440              		.loc 1 130 0 is_stmt 1
 441 0044 07E0     		b	.L30
 442              	.L31:
 131:Generated_Source\PSoC4/tinyprintf_printf.c **** 		putf(putp,fc);
 443              		.loc 1 131 0
 444 0046 F968     		ldr	r1, [r7, #12]
 445 0048 1323     		mov	r3, #19
 446 004a FB18     		add	r3, r7, r3
 447 004c 1A78     		ldrb	r2, [r3]
 448 004e BB68     		ldr	r3, [r7, #8]
 449 0050 081C     		mov	r0, r1
 450 0052 111C     		mov	r1, r2
 451 0054 9847     		blx	r3
 452              	.L30:
 130:Generated_Source\PSoC4/tinyprintf_printf.c **** 	while (n-- > 0) 
 453              		.loc 1 130 0
 454 0056 7B68     		ldr	r3, [r7, #4]
 455 0058 5A1E     		sub	r2, r3, #1
 456 005a 7A60     		str	r2, [r7, #4]
 457 005c 002B     		cmp	r3, #0
 458 005e F2DC     		bgt	.L31
 132:Generated_Source\PSoC4/tinyprintf_printf.c **** 	while ((ch= *bf++))
 459              		.loc 1 132 0
 460 0060 07E0     		b	.L32
 461              	.L33:
 133:Generated_Source\PSoC4/tinyprintf_printf.c **** 		putf(putp,ch);
 462              		.loc 1 133 0
 463 0062 F968     		ldr	r1, [r7, #12]
 464 0064 1223     		mov	r3, #18
 465 0066 FB18     		add	r3, r7, r3
 466 0068 1A78     		ldrb	r2, [r3]
 467 006a BB68     		ldr	r3, [r7, #8]
 468 006c 081C     		mov	r0, r1
 469 006e 111C     		mov	r1, r2
 470 0070 9847     		blx	r3
 471              	.L32:
 132:Generated_Source\PSoC4/tinyprintf_printf.c **** 	while ((ch= *bf++))
 472              		.loc 1 132 0
 473 0072 3B6A     		ldr	r3, [r7, #32]
 474 0074 5A1C     		add	r2, r3, #1
 475 0076 3A62     		str	r2, [r7, #32]
 476 0078 1222     		mov	r2, #18
 477 007a BA18     		add	r2, r7, r2
 478 007c 1B78     		ldrb	r3, [r3]
 479 007e 1370     		strb	r3, [r2]
 480 0080 1223     		mov	r3, #18
 481 0082 FB18     		add	r3, r7, r3
 482 0084 1B78     		ldrb	r3, [r3]
 483 0086 002B     		cmp	r3, #0
 484 0088 EBD1     		bne	.L33
 134:Generated_Source\PSoC4/tinyprintf_printf.c **** 	}
 485              		.loc 1 134 0
 486 008a BD46     		mov	sp, r7
ARM GAS  C:\Users\SHAHIL~1\AppData\Local\Temp\ccvhjtwi.s 			page 12


 487 008c 06B0     		add	sp, sp, #24
 488              		@ sp needed
 489 008e 80BD     		pop	{r7, pc}
 490              		.cfi_endproc
 491              	.LFE4:
 492              		.size	putchw, .-putchw
 493              		.section	.text.tfp_format,"ax",%progbits
 494              		.align	2
 495              		.global	tfp_format
 496              		.code	16
 497              		.thumb_func
 498              		.type	tfp_format, %function
 499              	tfp_format:
 500              	.LFB5:
 135:Generated_Source\PSoC4/tinyprintf_printf.c **** 
 136:Generated_Source\PSoC4/tinyprintf_printf.c **** void tfp_format(void* putp,putcf putf,char *fmt, va_list va)
 137:Generated_Source\PSoC4/tinyprintf_printf.c **** 	{
 501              		.loc 1 137 0
 502              		.cfi_startproc
 503 0000 90B5     		push	{r4, r7, lr}
 504              		.cfi_def_cfa_offset 12
 505              		.cfi_offset 4, -12
 506              		.cfi_offset 7, -8
 507              		.cfi_offset 14, -4
 508 0002 8DB0     		sub	sp, sp, #52
 509              		.cfi_def_cfa_offset 64
 510 0004 02AF     		add	r7, sp, #8
 511              		.cfi_def_cfa 7, 56
 512 0006 F860     		str	r0, [r7, #12]
 513 0008 B960     		str	r1, [r7, #8]
 514 000a 7A60     		str	r2, [r7, #4]
 515 000c 3B60     		str	r3, [r7]
 138:Generated_Source\PSoC4/tinyprintf_printf.c **** 	char bf[12];
 139:Generated_Source\PSoC4/tinyprintf_printf.c ****     
 140:Generated_Source\PSoC4/tinyprintf_printf.c **** 	char ch;
 141:Generated_Source\PSoC4/tinyprintf_printf.c **** 
 142:Generated_Source\PSoC4/tinyprintf_printf.c **** 
 143:Generated_Source\PSoC4/tinyprintf_printf.c **** 	while ((ch=*(fmt++))) {
 516              		.loc 1 143 0
 517 000e CFE0     		b	.L35
 518              	.L51:
 144:Generated_Source\PSoC4/tinyprintf_printf.c **** 		if (ch!='%') 
 519              		.loc 1 144 0
 520 0010 2723     		mov	r3, #39
 521 0012 FB18     		add	r3, r7, r3
 522 0014 1B78     		ldrb	r3, [r3]
 523 0016 252B     		cmp	r3, #37
 524 0018 08D0     		beq	.L36
 145:Generated_Source\PSoC4/tinyprintf_printf.c **** 			putf(putp,ch);
 525              		.loc 1 145 0
 526 001a F968     		ldr	r1, [r7, #12]
 527 001c 2723     		mov	r3, #39
 528 001e FB18     		add	r3, r7, r3
 529 0020 1A78     		ldrb	r2, [r3]
 530 0022 BB68     		ldr	r3, [r7, #8]
 531 0024 081C     		mov	r0, r1
 532 0026 111C     		mov	r1, r2
ARM GAS  C:\Users\SHAHIL~1\AppData\Local\Temp\ccvhjtwi.s 			page 13


 533 0028 9847     		blx	r3
 534 002a C1E0     		b	.L35
 535              	.L36:
 536              	.LBB3:
 146:Generated_Source\PSoC4/tinyprintf_printf.c **** 		else {
 147:Generated_Source\PSoC4/tinyprintf_printf.c **** 			char lz=0;
 537              		.loc 1 147 0
 538 002c 2623     		mov	r3, #38
 539 002e FB18     		add	r3, r7, r3
 540 0030 0022     		mov	r2, #0
 541 0032 1A70     		strb	r2, [r3]
 148:Generated_Source\PSoC4/tinyprintf_printf.c **** #ifdef 	PRINTF_LONG_SUPPORT
 149:Generated_Source\PSoC4/tinyprintf_printf.c **** 			char lng=0;
 150:Generated_Source\PSoC4/tinyprintf_printf.c **** #endif
 151:Generated_Source\PSoC4/tinyprintf_printf.c **** 			int w=0;
 542              		.loc 1 151 0
 543 0034 0023     		mov	r3, #0
 544 0036 7B61     		str	r3, [r7, #20]
 152:Generated_Source\PSoC4/tinyprintf_printf.c **** 			ch=*(fmt++);
 545              		.loc 1 152 0
 546 0038 7B68     		ldr	r3, [r7, #4]
 547 003a 5A1C     		add	r2, r3, #1
 548 003c 7A60     		str	r2, [r7, #4]
 549 003e 2722     		mov	r2, #39
 550 0040 BA18     		add	r2, r7, r2
 551 0042 1B78     		ldrb	r3, [r3]
 552 0044 1370     		strb	r3, [r2]
 153:Generated_Source\PSoC4/tinyprintf_printf.c **** 			if (ch=='0') {
 553              		.loc 1 153 0
 554 0046 2723     		mov	r3, #39
 555 0048 FB18     		add	r3, r7, r3
 556 004a 1B78     		ldrb	r3, [r3]
 557 004c 302B     		cmp	r3, #48
 558 004e 0AD1     		bne	.L37
 154:Generated_Source\PSoC4/tinyprintf_printf.c **** 				ch=*(fmt++);
 559              		.loc 1 154 0
 560 0050 7B68     		ldr	r3, [r7, #4]
 561 0052 5A1C     		add	r2, r3, #1
 562 0054 7A60     		str	r2, [r7, #4]
 563 0056 2722     		mov	r2, #39
 564 0058 BA18     		add	r2, r7, r2
 565 005a 1B78     		ldrb	r3, [r3]
 566 005c 1370     		strb	r3, [r2]
 155:Generated_Source\PSoC4/tinyprintf_printf.c **** 				lz=1;
 567              		.loc 1 155 0
 568 005e 2623     		mov	r3, #38
 569 0060 FB18     		add	r3, r7, r3
 570 0062 0122     		mov	r2, #1
 571 0064 1A70     		strb	r2, [r3]
 572              	.L37:
 156:Generated_Source\PSoC4/tinyprintf_printf.c **** 				}
 157:Generated_Source\PSoC4/tinyprintf_printf.c **** 			if (ch>='0' && ch<='9') {
 573              		.loc 1 157 0
 574 0066 2723     		mov	r3, #39
 575 0068 FB18     		add	r3, r7, r3
 576 006a 1B78     		ldrb	r3, [r3]
 577 006c 2F2B     		cmp	r3, #47
ARM GAS  C:\Users\SHAHIL~1\AppData\Local\Temp\ccvhjtwi.s 			page 14


 578 006e 13D9     		bls	.L38
 579              		.loc 1 157 0 is_stmt 0 discriminator 1
 580 0070 2723     		mov	r3, #39
 581 0072 FB18     		add	r3, r7, r3
 582 0074 1B78     		ldrb	r3, [r3]
 583 0076 392B     		cmp	r3, #57
 584 0078 0ED8     		bhi	.L38
 158:Generated_Source\PSoC4/tinyprintf_printf.c **** 				ch=a2i(ch,&fmt,10,&w);
 585              		.loc 1 158 0 is_stmt 1
 586 007a 2723     		mov	r3, #39
 587 007c FC18     		add	r4, r7, r3
 588 007e 2723     		mov	r3, #39
 589 0080 FB18     		add	r3, r7, r3
 590 0082 1978     		ldrb	r1, [r3]
 591 0084 3A1D     		add	r2, r7, #4
 592 0086 1423     		mov	r3, #20
 593 0088 FB18     		add	r3, r7, r3
 594 008a 081C     		mov	r0, r1
 595 008c 111C     		mov	r1, r2
 596 008e 0A22     		mov	r2, #10
 597 0090 FFF7FEFF 		bl	a2i
 598 0094 031C     		mov	r3, r0
 599 0096 2370     		strb	r3, [r4]
 600              	.L38:
 159:Generated_Source\PSoC4/tinyprintf_printf.c **** 				}
 160:Generated_Source\PSoC4/tinyprintf_printf.c **** #ifdef 	PRINTF_LONG_SUPPORT
 161:Generated_Source\PSoC4/tinyprintf_printf.c **** 			if (ch=='l') {
 162:Generated_Source\PSoC4/tinyprintf_printf.c **** 				ch=*(fmt++);
 163:Generated_Source\PSoC4/tinyprintf_printf.c **** 				lng=1;
 164:Generated_Source\PSoC4/tinyprintf_printf.c **** 			}
 165:Generated_Source\PSoC4/tinyprintf_printf.c **** #endif
 166:Generated_Source\PSoC4/tinyprintf_printf.c **** 			switch (ch) {
 601              		.loc 1 166 0
 602 0098 2723     		mov	r3, #39
 603 009a FB18     		add	r3, r7, r3
 604 009c 1B78     		ldrb	r3, [r3]
 605 009e 632B     		cmp	r3, #99
 606 00a0 63D0     		beq	.L40
 607 00a2 08DC     		bgt	.L41
 608 00a4 252B     		cmp	r3, #37
 609 00a6 00D1     		bne	.LCB529
 610 00a8 79E0     		b	.L42	@long jump
 611              	.LCB529:
 612 00aa 582B     		cmp	r3, #88
 613 00ac 3DD0     		beq	.L43
 614 00ae 002B     		cmp	r3, #0
 615 00b0 00D1     		bne	.LCB533
 616 00b2 8BE0     		b	.L52	@long jump
 617              	.LCB533:
 167:Generated_Source\PSoC4/tinyprintf_printf.c **** 				case 0: 
 168:Generated_Source\PSoC4/tinyprintf_printf.c **** 					goto abort;
 169:Generated_Source\PSoC4/tinyprintf_printf.c **** 				case 'u' : {
 170:Generated_Source\PSoC4/tinyprintf_printf.c **** #ifdef 	PRINTF_LONG_SUPPORT
 171:Generated_Source\PSoC4/tinyprintf_printf.c **** 					if (lng)
 172:Generated_Source\PSoC4/tinyprintf_printf.c **** 						uli2a(va_arg(va, unsigned long int),10,0,bf);
 173:Generated_Source\PSoC4/tinyprintf_printf.c **** 					else
 174:Generated_Source\PSoC4/tinyprintf_printf.c **** #endif
ARM GAS  C:\Users\SHAHIL~1\AppData\Local\Temp\ccvhjtwi.s 			page 15


 175:Generated_Source\PSoC4/tinyprintf_printf.c **** 					ui2a(va_arg(va, unsigned int),10,0,bf);
 176:Generated_Source\PSoC4/tinyprintf_printf.c **** 					putchw(putp,putf,w,lz,bf);
 177:Generated_Source\PSoC4/tinyprintf_printf.c **** 					break;
 178:Generated_Source\PSoC4/tinyprintf_printf.c **** 					}
 179:Generated_Source\PSoC4/tinyprintf_printf.c **** 				case 'd' :  {
 180:Generated_Source\PSoC4/tinyprintf_printf.c **** #ifdef 	PRINTF_LONG_SUPPORT
 181:Generated_Source\PSoC4/tinyprintf_printf.c **** 					if (lng)
 182:Generated_Source\PSoC4/tinyprintf_printf.c **** 						li2a(va_arg(va, unsigned long int),bf);
 183:Generated_Source\PSoC4/tinyprintf_printf.c **** 					else
 184:Generated_Source\PSoC4/tinyprintf_printf.c **** #endif
 185:Generated_Source\PSoC4/tinyprintf_printf.c **** 					i2a(va_arg(va, int),bf);
 186:Generated_Source\PSoC4/tinyprintf_printf.c **** 					putchw(putp,putf,w,lz,bf);
 187:Generated_Source\PSoC4/tinyprintf_printf.c **** 					break;
 188:Generated_Source\PSoC4/tinyprintf_printf.c **** 					}
 189:Generated_Source\PSoC4/tinyprintf_printf.c **** 				case 'x': case 'X' : 
 190:Generated_Source\PSoC4/tinyprintf_printf.c **** #ifdef 	PRINTF_LONG_SUPPORT
 191:Generated_Source\PSoC4/tinyprintf_printf.c **** 					if (lng)
 192:Generated_Source\PSoC4/tinyprintf_printf.c **** 						uli2a(va_arg(va, unsigned long int),16,(ch=='X'),bf);
 193:Generated_Source\PSoC4/tinyprintf_printf.c **** 					else
 194:Generated_Source\PSoC4/tinyprintf_printf.c **** #endif
 195:Generated_Source\PSoC4/tinyprintf_printf.c **** 					ui2a(va_arg(va, unsigned int),16,(ch=='X'),bf);
 196:Generated_Source\PSoC4/tinyprintf_printf.c **** 					putchw(putp,putf,w,lz,bf);
 197:Generated_Source\PSoC4/tinyprintf_printf.c **** 					break;
 198:Generated_Source\PSoC4/tinyprintf_printf.c **** 				case 'c' : 
 199:Generated_Source\PSoC4/tinyprintf_printf.c **** 					putf(putp,(char)(va_arg(va, int)));
 200:Generated_Source\PSoC4/tinyprintf_printf.c **** 					break;
 201:Generated_Source\PSoC4/tinyprintf_printf.c **** 				case 's' : 
 202:Generated_Source\PSoC4/tinyprintf_printf.c **** 					putchw(putp,putf,w,0,va_arg(va, char*));
 203:Generated_Source\PSoC4/tinyprintf_printf.c **** 					break;
 204:Generated_Source\PSoC4/tinyprintf_printf.c **** 				case '%' :
 205:Generated_Source\PSoC4/tinyprintf_printf.c **** 					putf(putp,ch);
 206:Generated_Source\PSoC4/tinyprintf_printf.c **** 				default:
 207:Generated_Source\PSoC4/tinyprintf_printf.c **** 					break;
 618              		.loc 1 207 0
 619 00b4 7BE0     		b	.L53
 620              	.L41:
 166:Generated_Source\PSoC4/tinyprintf_printf.c **** 				case 0: 
 621              		.loc 1 166 0
 622 00b6 732B     		cmp	r3, #115
 623 00b8 62D0     		beq	.L45
 624 00ba 02DC     		bgt	.L46
 625 00bc 642B     		cmp	r3, #100
 626 00be 1DD0     		beq	.L47
 627              		.loc 1 207 0
 628 00c0 75E0     		b	.L53
 629              	.L46:
 166:Generated_Source\PSoC4/tinyprintf_printf.c **** 				case 0: 
 630              		.loc 1 166 0
 631 00c2 752B     		cmp	r3, #117
 632 00c4 02D0     		beq	.L48
 633 00c6 782B     		cmp	r3, #120
 634 00c8 2FD0     		beq	.L43
 635              		.loc 1 207 0
 636 00ca 70E0     		b	.L53
 637              	.L48:
 175:Generated_Source\PSoC4/tinyprintf_printf.c **** 					putchw(putp,putf,w,lz,bf);
 638              		.loc 1 175 0
ARM GAS  C:\Users\SHAHIL~1\AppData\Local\Temp\ccvhjtwi.s 			page 16


 639 00cc 3B68     		ldr	r3, [r7]
 640 00ce 1A1D     		add	r2, r3, #4
 641 00d0 3A60     		str	r2, [r7]
 642 00d2 1A68     		ldr	r2, [r3]
 643 00d4 1823     		mov	r3, #24
 644 00d6 FB18     		add	r3, r7, r3
 645 00d8 101C     		mov	r0, r2
 646 00da 0A21     		mov	r1, #10
 647 00dc 0022     		mov	r2, #0
 648 00de FFF7FEFF 		bl	ui2a
 176:Generated_Source\PSoC4/tinyprintf_printf.c **** 					break;
 649              		.loc 1 176 0
 650 00e2 7A69     		ldr	r2, [r7, #20]
 651 00e4 F868     		ldr	r0, [r7, #12]
 652 00e6 B968     		ldr	r1, [r7, #8]
 653 00e8 2623     		mov	r3, #38
 654 00ea FB18     		add	r3, r7, r3
 655 00ec 1C78     		ldrb	r4, [r3]
 656 00ee 1823     		mov	r3, #24
 657 00f0 FB18     		add	r3, r7, r3
 658 00f2 0093     		str	r3, [sp]
 659 00f4 231C     		mov	r3, r4
 660 00f6 FFF7FEFF 		bl	putchw
 177:Generated_Source\PSoC4/tinyprintf_printf.c **** 					}
 661              		.loc 1 177 0
 662 00fa 59E0     		b	.L50
 663              	.L47:
 185:Generated_Source\PSoC4/tinyprintf_printf.c **** 					putchw(putp,putf,w,lz,bf);
 664              		.loc 1 185 0
 665 00fc 3B68     		ldr	r3, [r7]
 666 00fe 1A1D     		add	r2, r3, #4
 667 0100 3A60     		str	r2, [r7]
 668 0102 1A68     		ldr	r2, [r3]
 669 0104 1823     		mov	r3, #24
 670 0106 FB18     		add	r3, r7, r3
 671 0108 101C     		mov	r0, r2
 672 010a 191C     		mov	r1, r3
 673 010c FFF7FEFF 		bl	i2a
 186:Generated_Source\PSoC4/tinyprintf_printf.c **** 					break;
 674              		.loc 1 186 0
 675 0110 7A69     		ldr	r2, [r7, #20]
 676 0112 F868     		ldr	r0, [r7, #12]
 677 0114 B968     		ldr	r1, [r7, #8]
 678 0116 2623     		mov	r3, #38
 679 0118 FB18     		add	r3, r7, r3
 680 011a 1C78     		ldrb	r4, [r3]
 681 011c 1823     		mov	r3, #24
 682 011e FB18     		add	r3, r7, r3
 683 0120 0093     		str	r3, [sp]
 684 0122 231C     		mov	r3, r4
 685 0124 FFF7FEFF 		bl	putchw
 187:Generated_Source\PSoC4/tinyprintf_printf.c **** 					}
 686              		.loc 1 187 0
 687 0128 42E0     		b	.L50
 688              	.L43:
 195:Generated_Source\PSoC4/tinyprintf_printf.c **** 					putchw(putp,putf,w,lz,bf);
 689              		.loc 1 195 0
ARM GAS  C:\Users\SHAHIL~1\AppData\Local\Temp\ccvhjtwi.s 			page 17


 690 012a 3B68     		ldr	r3, [r7]
 691 012c 1A1D     		add	r2, r3, #4
 692 012e 3A60     		str	r2, [r7]
 693 0130 1A68     		ldr	r2, [r3]
 694 0132 2723     		mov	r3, #39
 695 0134 FB18     		add	r3, r7, r3
 696 0136 1B78     		ldrb	r3, [r3]
 697 0138 583B     		sub	r3, r3, #88
 698 013a 5942     		neg	r1, r3
 699 013c 4B41     		adc	r3, r3, r1
 700 013e DBB2     		uxtb	r3, r3
 701 0140 1C1C     		mov	r4, r3
 702 0142 1823     		mov	r3, #24
 703 0144 FB18     		add	r3, r7, r3
 704 0146 101C     		mov	r0, r2
 705 0148 1021     		mov	r1, #16
 706 014a 221C     		mov	r2, r4
 707 014c FFF7FEFF 		bl	ui2a
 196:Generated_Source\PSoC4/tinyprintf_printf.c **** 					break;
 708              		.loc 1 196 0
 709 0150 7A69     		ldr	r2, [r7, #20]
 710 0152 F868     		ldr	r0, [r7, #12]
 711 0154 B968     		ldr	r1, [r7, #8]
 712 0156 2623     		mov	r3, #38
 713 0158 FB18     		add	r3, r7, r3
 714 015a 1C78     		ldrb	r4, [r3]
 715 015c 1823     		mov	r3, #24
 716 015e FB18     		add	r3, r7, r3
 717 0160 0093     		str	r3, [sp]
 718 0162 231C     		mov	r3, r4
 719 0164 FFF7FEFF 		bl	putchw
 197:Generated_Source\PSoC4/tinyprintf_printf.c **** 				case 'c' : 
 720              		.loc 1 197 0
 721 0168 22E0     		b	.L50
 722              	.L40:
 199:Generated_Source\PSoC4/tinyprintf_printf.c **** 					break;
 723              		.loc 1 199 0
 724 016a 3B68     		ldr	r3, [r7]
 725 016c 1A1D     		add	r2, r3, #4
 726 016e 3A60     		str	r2, [r7]
 727 0170 1B68     		ldr	r3, [r3]
 728 0172 DAB2     		uxtb	r2, r3
 729 0174 F968     		ldr	r1, [r7, #12]
 730 0176 BB68     		ldr	r3, [r7, #8]
 731 0178 081C     		mov	r0, r1
 732 017a 111C     		mov	r1, r2
 733 017c 9847     		blx	r3
 200:Generated_Source\PSoC4/tinyprintf_printf.c **** 				case 's' : 
 734              		.loc 1 200 0
 735 017e 17E0     		b	.L50
 736              	.L45:
 202:Generated_Source\PSoC4/tinyprintf_printf.c **** 					break;
 737              		.loc 1 202 0
 738 0180 7C69     		ldr	r4, [r7, #20]
 739 0182 3B68     		ldr	r3, [r7]
 740 0184 1A1D     		add	r2, r3, #4
 741 0186 3A60     		str	r2, [r7]
ARM GAS  C:\Users\SHAHIL~1\AppData\Local\Temp\ccvhjtwi.s 			page 18


 742 0188 1B68     		ldr	r3, [r3]
 743 018a F968     		ldr	r1, [r7, #12]
 744 018c BA68     		ldr	r2, [r7, #8]
 745 018e 0093     		str	r3, [sp]
 746 0190 081C     		mov	r0, r1
 747 0192 111C     		mov	r1, r2
 748 0194 221C     		mov	r2, r4
 749 0196 0023     		mov	r3, #0
 750 0198 FFF7FEFF 		bl	putchw
 203:Generated_Source\PSoC4/tinyprintf_printf.c **** 				case '%' :
 751              		.loc 1 203 0
 752 019c 08E0     		b	.L50
 753              	.L42:
 205:Generated_Source\PSoC4/tinyprintf_printf.c **** 				default:
 754              		.loc 1 205 0
 755 019e F968     		ldr	r1, [r7, #12]
 756 01a0 2723     		mov	r3, #39
 757 01a2 FB18     		add	r3, r7, r3
 758 01a4 1A78     		ldrb	r2, [r3]
 759 01a6 BB68     		ldr	r3, [r7, #8]
 760 01a8 081C     		mov	r0, r1
 761 01aa 111C     		mov	r1, r2
 762 01ac 9847     		blx	r3
 763              	.L53:
 764              		.loc 1 207 0
 765 01ae C046     		mov	r8, r8
 766              	.L50:
 767              	.L35:
 768              	.LBE3:
 143:Generated_Source\PSoC4/tinyprintf_printf.c **** 		if (ch!='%') 
 769              		.loc 1 143 0
 770 01b0 7B68     		ldr	r3, [r7, #4]
 771 01b2 5A1C     		add	r2, r3, #1
 772 01b4 7A60     		str	r2, [r7, #4]
 773 01b6 2722     		mov	r2, #39
 774 01b8 BA18     		add	r2, r7, r2
 775 01ba 1B78     		ldrb	r3, [r3]
 776 01bc 1370     		strb	r3, [r2]
 777 01be 2723     		mov	r3, #39
 778 01c0 FB18     		add	r3, r7, r3
 779 01c2 1B78     		ldrb	r3, [r3]
 780 01c4 002B     		cmp	r3, #0
 781 01c6 00D0     		beq	.LCB695
 782 01c8 22E7     		b	.L51	@long jump
 783              	.LCB695:
 784 01ca 00E0     		b	.L34
 785              	.L49:
 786              	.L52:
 787              	.LBB4:
 168:Generated_Source\PSoC4/tinyprintf_printf.c **** 				case 'u' : {
 788              		.loc 1 168 0
 789 01cc C046     		mov	r8, r8
 790              	.L34:
 791              	.LBE4:
 208:Generated_Source\PSoC4/tinyprintf_printf.c **** 				}
 209:Generated_Source\PSoC4/tinyprintf_printf.c **** 			}
 210:Generated_Source\PSoC4/tinyprintf_printf.c **** 		}
ARM GAS  C:\Users\SHAHIL~1\AppData\Local\Temp\ccvhjtwi.s 			page 19


 211:Generated_Source\PSoC4/tinyprintf_printf.c **** 	abort:;
 212:Generated_Source\PSoC4/tinyprintf_printf.c **** 	}
 792              		.loc 1 212 0
 793 01ce BD46     		mov	sp, r7
 794 01d0 0BB0     		add	sp, sp, #44
 795              		@ sp needed
 796 01d2 90BD     		pop	{r4, r7, pc}
 797              		.cfi_endproc
 798              	.LFE5:
 799              		.size	tfp_format, .-tfp_format
 800              		.section	.text.init_printf,"ax",%progbits
 801              		.align	2
 802              		.global	init_printf
 803              		.code	16
 804              		.thumb_func
 805              		.type	init_printf, %function
 806              	init_printf:
 807              	.LFB6:
 213:Generated_Source\PSoC4/tinyprintf_printf.c **** 
 214:Generated_Source\PSoC4/tinyprintf_printf.c **** 
 215:Generated_Source\PSoC4/tinyprintf_printf.c **** void init_printf(void* putp,void (*putf) (void*,char))
 216:Generated_Source\PSoC4/tinyprintf_printf.c **** 	{
 808              		.loc 1 216 0
 809              		.cfi_startproc
 810 0000 80B5     		push	{r7, lr}
 811              		.cfi_def_cfa_offset 8
 812              		.cfi_offset 7, -8
 813              		.cfi_offset 14, -4
 814 0002 82B0     		sub	sp, sp, #8
 815              		.cfi_def_cfa_offset 16
 816 0004 00AF     		add	r7, sp, #0
 817              		.cfi_def_cfa_register 7
 818 0006 7860     		str	r0, [r7, #4]
 819 0008 3960     		str	r1, [r7]
 217:Generated_Source\PSoC4/tinyprintf_printf.c **** 	stdout_putf=putf;
 820              		.loc 1 217 0
 821 000a 044B     		ldr	r3, .L55
 822 000c 3A68     		ldr	r2, [r7]
 823 000e 1A60     		str	r2, [r3]
 218:Generated_Source\PSoC4/tinyprintf_printf.c **** 	stdout_putp=putp;
 824              		.loc 1 218 0
 825 0010 034B     		ldr	r3, .L55+4
 826 0012 7A68     		ldr	r2, [r7, #4]
 827 0014 1A60     		str	r2, [r3]
 219:Generated_Source\PSoC4/tinyprintf_printf.c **** 	}
 828              		.loc 1 219 0
 829 0016 BD46     		mov	sp, r7
 830 0018 02B0     		add	sp, sp, #8
 831              		@ sp needed
 832 001a 80BD     		pop	{r7, pc}
 833              	.L56:
 834              		.align	2
 835              	.L55:
 836 001c 00000000 		.word	stdout_putf
 837 0020 04000000 		.word	stdout_putp
 838              		.cfi_endproc
 839              	.LFE6:
ARM GAS  C:\Users\SHAHIL~1\AppData\Local\Temp\ccvhjtwi.s 			page 20


 840              		.size	init_printf, .-init_printf
 841              		.section	.text.tfp_printf,"ax",%progbits
 842              		.align	2
 843              		.global	tfp_printf
 844              		.code	16
 845              		.thumb_func
 846              		.type	tfp_printf, %function
 847              	tfp_printf:
 848              	.LFB7:
 220:Generated_Source\PSoC4/tinyprintf_printf.c **** 
 221:Generated_Source\PSoC4/tinyprintf_printf.c **** void tfp_printf(char *fmt, ...)
 222:Generated_Source\PSoC4/tinyprintf_printf.c **** 	{
 849              		.loc 1 222 0
 850              		.cfi_startproc
 851 0000 0FB4     		push	{r0, r1, r2, r3}
 852              		.cfi_def_cfa_offset 16
 853 0002 80B5     		push	{r7, lr}
 854              		.cfi_def_cfa_offset 24
 855              		.cfi_offset 7, -24
 856              		.cfi_offset 14, -20
 857 0004 82B0     		sub	sp, sp, #8
 858              		.cfi_def_cfa_offset 32
 859 0006 00AF     		add	r7, sp, #0
 860              		.cfi_def_cfa_register 7
 223:Generated_Source\PSoC4/tinyprintf_printf.c **** 	va_list va;
 224:Generated_Source\PSoC4/tinyprintf_printf.c **** 	va_start(va,fmt);
 861              		.loc 1 224 0
 862 0008 1423     		mov	r3, #20
 863 000a FB18     		add	r3, r7, r3
 864 000c 7B60     		str	r3, [r7, #4]
 225:Generated_Source\PSoC4/tinyprintf_printf.c **** 	tfp_format(stdout_putp,stdout_putf,fmt,va);
 865              		.loc 1 225 0
 866 000e 074B     		ldr	r3, .L58
 867 0010 1868     		ldr	r0, [r3]
 868 0012 074B     		ldr	r3, .L58+4
 869 0014 1968     		ldr	r1, [r3]
 870 0016 3A69     		ldr	r2, [r7, #16]
 871 0018 7B68     		ldr	r3, [r7, #4]
 872 001a FFF7FEFF 		bl	tfp_format
 226:Generated_Source\PSoC4/tinyprintf_printf.c **** 	va_end(va);
 227:Generated_Source\PSoC4/tinyprintf_printf.c **** 	}
 873              		.loc 1 227 0
 874 001e BD46     		mov	sp, r7
 875 0020 02B0     		add	sp, sp, #8
 876              		@ sp needed
 877 0022 80BC     		pop	{r7}
 878 0024 08BC     		pop	{r3}
 879 0026 04B0     		add	sp, sp, #16
 880 0028 1847     		bx	r3
 881              	.L59:
 882 002a C046     		.align	2
 883              	.L58:
 884 002c 04000000 		.word	stdout_putp
 885 0030 00000000 		.word	stdout_putf
 886              		.cfi_endproc
 887              	.LFE7:
 888              		.size	tfp_printf, .-tfp_printf
ARM GAS  C:\Users\SHAHIL~1\AppData\Local\Temp\ccvhjtwi.s 			page 21


 889              		.section	.text.putcp,"ax",%progbits
 890              		.align	2
 891              		.code	16
 892              		.thumb_func
 893              		.type	putcp, %function
 894              	putcp:
 895              	.LFB8:
 228:Generated_Source\PSoC4/tinyprintf_printf.c **** 
 229:Generated_Source\PSoC4/tinyprintf_printf.c **** static void putcp(void* p,char c)
 230:Generated_Source\PSoC4/tinyprintf_printf.c **** 	{
 896              		.loc 1 230 0
 897              		.cfi_startproc
 898 0000 80B5     		push	{r7, lr}
 899              		.cfi_def_cfa_offset 8
 900              		.cfi_offset 7, -8
 901              		.cfi_offset 14, -4
 902 0002 82B0     		sub	sp, sp, #8
 903              		.cfi_def_cfa_offset 16
 904 0004 00AF     		add	r7, sp, #0
 905              		.cfi_def_cfa_register 7
 906 0006 7860     		str	r0, [r7, #4]
 907 0008 0A1C     		mov	r2, r1
 908 000a FB1C     		add	r3, r7, #3
 909 000c 1A70     		strb	r2, [r3]
 231:Generated_Source\PSoC4/tinyprintf_printf.c **** 	*(*((char**)p))++ = c;
 910              		.loc 1 231 0
 911 000e 7B68     		ldr	r3, [r7, #4]
 912 0010 1B68     		ldr	r3, [r3]
 913 0012 591C     		add	r1, r3, #1
 914 0014 7A68     		ldr	r2, [r7, #4]
 915 0016 1160     		str	r1, [r2]
 916 0018 FA1C     		add	r2, r7, #3
 917 001a 1278     		ldrb	r2, [r2]
 918 001c 1A70     		strb	r2, [r3]
 232:Generated_Source\PSoC4/tinyprintf_printf.c **** 	}
 919              		.loc 1 232 0
 920 001e BD46     		mov	sp, r7
 921 0020 02B0     		add	sp, sp, #8
 922              		@ sp needed
 923 0022 80BD     		pop	{r7, pc}
 924              		.cfi_endproc
 925              	.LFE8:
 926              		.size	putcp, .-putcp
 927              		.section	.text.tfp_sprintf,"ax",%progbits
 928              		.align	2
 929              		.global	tfp_sprintf
 930              		.code	16
 931              		.thumb_func
 932              		.type	tfp_sprintf, %function
 933              	tfp_sprintf:
 934              	.LFB9:
 233:Generated_Source\PSoC4/tinyprintf_printf.c **** 
 234:Generated_Source\PSoC4/tinyprintf_printf.c **** 
 235:Generated_Source\PSoC4/tinyprintf_printf.c **** 
 236:Generated_Source\PSoC4/tinyprintf_printf.c **** void tfp_sprintf(char* s,char *fmt, ...)
 237:Generated_Source\PSoC4/tinyprintf_printf.c **** 	{
 935              		.loc 1 237 0
ARM GAS  C:\Users\SHAHIL~1\AppData\Local\Temp\ccvhjtwi.s 			page 22


 936              		.cfi_startproc
 937 0000 0EB4     		push	{r1, r2, r3}
 938              		.cfi_def_cfa_offset 12
 939 0002 80B5     		push	{r7, lr}
 940              		.cfi_def_cfa_offset 20
 941              		.cfi_offset 7, -20
 942              		.cfi_offset 14, -16
 943 0004 85B0     		sub	sp, sp, #20
 944              		.cfi_def_cfa_offset 40
 945 0006 00AF     		add	r7, sp, #0
 946              		.cfi_def_cfa_register 7
 947 0008 7860     		str	r0, [r7, #4]
 238:Generated_Source\PSoC4/tinyprintf_printf.c **** 	va_list va;
 239:Generated_Source\PSoC4/tinyprintf_printf.c **** 	va_start(va,fmt);
 948              		.loc 1 239 0
 949 000a 2023     		mov	r3, #32
 950 000c FB18     		add	r3, r7, r3
 951 000e FB60     		str	r3, [r7, #12]
 240:Generated_Source\PSoC4/tinyprintf_printf.c **** 	tfp_format(&s,putcp,fmt,va);
 952              		.loc 1 240 0
 953 0010 381D     		add	r0, r7, #4
 954 0012 0849     		ldr	r1, .L62
 955 0014 FA69     		ldr	r2, [r7, #28]
 956 0016 FB68     		ldr	r3, [r7, #12]
 957 0018 FFF7FEFF 		bl	tfp_format
 241:Generated_Source\PSoC4/tinyprintf_printf.c **** 	putcp(&s,0);
 958              		.loc 1 241 0
 959 001c 3B1D     		add	r3, r7, #4
 960 001e 181C     		mov	r0, r3
 961 0020 0021     		mov	r1, #0
 962 0022 FFF7FEFF 		bl	putcp
 242:Generated_Source\PSoC4/tinyprintf_printf.c **** 	va_end(va);
 243:Generated_Source\PSoC4/tinyprintf_printf.c **** 	}
 963              		.loc 1 243 0
 964 0026 BD46     		mov	sp, r7
 965 0028 05B0     		add	sp, sp, #20
 966              		@ sp needed
 967 002a 80BC     		pop	{r7}
 968 002c 08BC     		pop	{r3}
 969 002e 03B0     		add	sp, sp, #12
 970 0030 1847     		bx	r3
 971              	.L63:
 972 0032 C046     		.align	2
 973              	.L62:
 974 0034 00000000 		.word	putcp
 975              		.cfi_endproc
 976              	.LFE9:
 977              		.size	tfp_sprintf, .-tfp_sprintf
 978              		.text
 979              	.Letext0:
 980              		.file 2 "c:\\program files (x86)\\cypress\\psoc creator\\4.0\\psoc creator\\import\\gnu\\arm\\4.9.
 981              		.file 3 "<built-in>"